ccopy_reg
_reconstructor
p1
(cpandas.core.frame
DataFrame
p2
c__builtin__
object
p3
NtRp4
(dp5
S'_metadata'
p6
(lp7
sS'_typ'
p8
S'dataframe'
p9
sS'_data'
p10
g1
(cpandas.core.internals
BlockManager
p11
g3
NtRp12
((lp13
cpandas.core.indexes.base
_new_Index
p14
(cpandas.core.indexes.base
Index
p15
(dp16
S'data'
p17
cnumpy.core.multiarray
_reconstruct
p18
(cnumpy
ndarray
p19
(I0
tS'b'
tRp20
(I1
(L3L
tcnumpy
dtype
p21
(S'O8'
I0
I1
tRp22
(I3
S'|'
NNNI-1
I-1
I63
tbI00
(lp23
S'code'
p24
aS'name'
p25
aS'c_name'
p26
atbsg25
NstRp27
ag14
(cpandas.core.indexes.range
RangeIndex
p28
(dp29
S'start'
p30
I0
sS'step'
p31
I1
sS'stop'
p32
I2403
sg25
NstRp33
a(lp34
g18
(g19
(I0
tS'b'
tRp35
(I1
(L3L
L2403L
tg22
I00
(lp36
V600051
p37
aV600209
p38
aV600212
p39
aV600256
p40
aV600576
p41
aV600603
p42
aV600614
p43
aV600620
p44
aV600622
p45
aV600624
p46
aV600647
p47
aV600656
p48
aV600687
p49
aV600701
p50
aV600730
p51
aV600770
p52
aV600777
p53
aV600800
p54
aV600805
p55
aV600811
p56
aV600832
p57
aV600846
p58
aV600892
p59
aV000008
p60
aV000301
p61
aV000576
p62
aV000632
p63
aV000633
p64
aV000652
p65
aV000701
p66
aV000839
p67
aV000881
p68
aV000909
p69
aV600003
p70
aV600012
p71
aV600020
p72
aV600033
p73
aV600035
p74
aV600106
p75
aV600269
p76
aV600350
p77
aV600368
p78
aV600377
p79
aV600548
p80
aV601107
p81
aV601188
p82
aV601518
p83
aV000429
p84
aV000548
p85
aV000828
p86
aV000886
p87
aV000900
p88
aV000916
p89
aV600061
p90
aV600063
p91
aV600527
p92
aV600810
p93
aV600889
p94
aV601113
p95
aV601233
p96
aV000420
p97
aV000584
p98
aV000615
p99
aV000677
p100
aV000687
p101
aV000703
p102
aV000782
p103
aV000936
p104
aV000949
p105
aV000976
p106
aV002015
p107
aV002064
p108
aV002080
p109
aV002172
p110
aV002206
p111
aV002254
p112
aV002427
p113
aV002493
p114
aV300180
p115
aV600031
p116
aV600114
p117
aV600149
p118
aV600169
p119
aV600218
p120
aV600243
p121
aV600262
p122
aV600320
p123
aV600346
p124
aV600388
p125
aV600421
p126
aV600435
p127
aV600475
p128
aV600499
p129
aV600520
p130
aV600526
p131
aV600579
p132
aV600582
p133
aV600592
p134
aV600619
p135
aV600710
p136
aV600761
p137
aV600765
p138
aV600806
p139
aV600815
p140
aV600841
p141
aV600855
p142
aV600860
p143
aV600984
p144
aV601002
p145
aV601038
p146
aV601100
p147
aV601106
p148
aV601177
p149
aV601218
p150
aV601226
p151
aV601268
p152
aV601369
p153
aV601608
p154
aV601717
p155
aV601798
p156
aV603011
p157
aV603012
p158
aV603088
p159
aV603169
p160
aV603308
p161
aV603315
p162
aV603318
p163
aV603338
p164
aV603355
p165
aV603698
p166
aV603699
p167
aV603789
p168
aV000039
p169
aV000157
p170
aV000404
p171
aV000410
p172
aV000425
p173
aV000519
p174
aV000528
p175
aV000530
p176
aV000551
p177
aV000570
p178
aV000595
p179
aV000617
p180
aV000678
p181
aV000680
p182
aV000777
p183
aV000811
p184
aV000816
p185
aV000821
p186
aV000837
p187
aV000852
p188
aV000856
p189
aV000880
p190
aV000903
p191
aV000923
p192
aV000925
p193
aV002006
p194
aV002009
p195
aV002011
p196
aV002026
p197
aV002046
p198
aV002050
p199
aV002097
p200
aV002101
p201
aV002122
p202
aV002131
p203
aV002147
p204
aV002150
p205
aV002158
p206
aV002204
p207
aV002209
p208
aV002248
p209
aV002255
p210
aV002270
p211
aV002272
p212
aV002278
p213
aV002282
p214
aV002328
p215
aV600062
p216
aV600079
p217
aV600080
p218
aV600085
p219
aV600129
p220
aV600161
p221
aV600196
p222
aV600200
p223
aV600201
p224
aV600211
p225
aV600216
p226
aV600222
p227
aV600252
p228
aV600253
p229
aV600267
p230
aV600276
p231
aV600285
p232
aV600329
p233
aV600332
p234
aV600351
p235
aV600380
p236
aV600420
p237
aV600422
p238
aV600436
p239
aV600466
p240
aV600479
p241
aV600488
p242
aV600513
p243
aV600518
p244
aV600521
p245
aV600530
p246
aV600535
p247
aV600557
p248
aV600566
p249
aV600572
p250
aV600594
p251
aV600613
p252
aV600645
p253
aV600664
p254
aV600666
p255
aV600671
p256
aV600750
p257
aV600771
p258
aV600781
p259
aV600789
p260
aV600812
p261
aV600829
p262
aV600867
p263
aV600976
p264
aV600993
p265
aV603168
p266
aV603222
p267
aV603456
p268
aV603567
p269
aV603998
p270
aV000004
p271
aV000078
p272
aV000153
p273
aV000403
p274
aV000423
p275
aV000513
p276
aV000518
p277
aV000522
p278
aV000538
p279
aV000566
p280
aV000590
p281
aV000597
p282
aV000606
p283
aV000623
p284
aV000650
p285
aV000661
p286
aV000739
p287
aV000756
p288
aV000766
p289
aV000788
p290
aV000790
p291
aV000908
p292
aV000915
p293
aV000919
p294
aV000952
p295
aV000963
p296
aV000989
p297
aV000999
p298
aV002001
p299
aV002007
p300
aV002019
p301
aV002020
p302
aV002022
p303
aV002030
p304
aV002038
p305
aV002099
p306
aV002107
p307
aV002118
p308
aV002166
p309
aV002198
p310
aV002219
p311
aV002252
p312
aV002262
p313
aV002275
p314
aV002287
p315
aV600002
p316
aV600028
p317
aV600387
p318
aV600583
p319
aV600688
p320
aV600759
p321
aV600871
p322
aV601808
p323
aV601857
p324
aV603003
p325
aV000059
p326
aV000096
p327
aV000159
p328
aV000554
p329
aV000637
p330
aV000819
p331
aV002207
p332
aV002221
p333
aV002554
p334
aV002629
p335
aV300084
p336
aV300157
p337
aV300164
p338
aV300191
p339
aV600176
p340
aV600184
p341
aV600293
p342
aV600529
p343
aV600552
p344
aV600586
p345
aV600629
p346
aV600819
p347
aV600876
p348
aV601636
p349
aV603021
p350
aV603601
p351
aV000012
p352
aV002571
p353
aV002623
p354
aV300093
p355
aV300160
p356
aV300196
p357
aV300395
p358
aV600366
p359
aV600651
p360
aV600848
p361
aV601222
p362
aV601567
p363
aV603100
p364
aV000676
p365
aV000980
p366
aV000988
p367
aV002008
p368
aV002058
p369
aV002121
p370
aV002175
p371
aV002197
p372
aV002214
p373
aV002236
p374
aV002338
p375
aV002356
p376
aV002414
p377
aV002415
p378
aV002518
p379
aV002527
p380
aV002658
p381
aV300007
p382
aV300012
p383
aV300066
p384
aV300097
p385
aV300099
p386
aV300105
p387
aV300112
p388
aV300124
p389
aV300137
p390
aV300165
p391
aV300203
p392
aV300259
p393
aV300286
p394
aV300306
p395
aV300338
p396
aV300349
p397
aV300354
p398
aV300360
p399
aV300370
p400
aV300371
p401
aV300410
p402
aV300416
p403
aV300417
p404
aV300430
p405
aV300445
p406
aV600004
p407
aV600009
p408
aV600017
p409
aV600018
p410
aV600026
p411
aV600029
p412
aV600057
p413
aV600087
p414
aV600115
p415
aV600119
p416
aV600125
p417
aV600180
p418
aV600190
p419
aV600221
p420
aV600242
p421
aV600270
p422
aV600279
p423
aV600317
p424
aV600386
p425
aV600428
p426
aV600495
p427
aV600561
p428
aV600575
p429
aV600611
p430
aV600650
p431
aV600662
p432
aV600692
p433
aV600708
p434
aV600717
p435
aV600751
p436
aV600787
p437
aV600794
p438
aV600798
p439
aV600834
p440
aV600835
p441
aV600894
p442
aV600896
p443
aV600897
p444
aV600967
p445
aV601000
p446
aV601006
p447
aV601008
p448
aV601018
p449
aV601021
p450
aV601111
p451
aV601299
p452
aV601313
p453
aV601333
p454
aV601766
p455
aV601866
p456
aV601872
p457
aV601880
p458
aV601919
p459
aV603111
p460
aV603128
p461
aV603167
p462
aV603611
p463
aV000022
p464
aV000088
p465
aV000089
p466
aV000099
p467
aV000421
p468
aV000507
p469
aV000520
p470
aV000582
p471
aV000594
p472
aV000905
p473
aV000920
p474
aV000996
p475
aV002040
p476
aV002183
p477
aV002210
p478
aV002245
p479
aV002320
p480
aV002357
p481
aV002367
p482
aV002448
p483
aV002492
p484
aV002592
p485
aV002627
p486
aV002682
p487
aV002689
p488
aV002711
p489
aV300011
p490
aV300013
p491
aV300240
p492
aV300350
p493
aV600038
p494
aV600118
p495
aV600316
p496
aV600343
p497
aV600372
p498
aV600391
p499
aV600879
p500
aV600893
p501
aV000738
p502
aV000768
p503
aV000901
p504
aV002023
p505
aV002111
p506
aV300424
p507
aV600097
p508
aV600108
p509
aV600127
p510
aV600189
p511
aV600195
p512
aV600251
p513
aV600257
p514
aV600265
p515
aV600275
p516
aV600313
p517
aV600354
p518
aV600359
p519
aV600371
p520
aV600438
p521
aV600467
p522
aV600506
p523
aV600540
p524
aV600598
p525
aV600965
p526
aV600975
p527
aV601996
p528
aV603609
p529
aV000048
p530
aV000061
p531
aV000592
p532
aV000663
p533
aV000702
p534
aV000713
p535
aV000735
p536
aV000798
p537
aV000876
p538
aV000998
p539
aV002041
p540
aV002069
p541
aV002086
p542
aV002100
p543
aV002124
p544
aV002157
p545
aV002173
p546
aV002234
p547
aV002299
p548
aV002311
p549
aV002321
p550
aV002385
p551
aV002447
p552
aV002458
p553
aV002477
p554
aV002505
p555
aV002548
p556
aV002567
p557
aV002679
p558
aV002696
p559
aV002714
p560
aV002746
p561
aV300021
p562
aV300087
p563
aV300094
p564
aV300106
p565
aV300143
p566
aV300186
p567
aV300189
p568
aV300268
p569
aV300313
p570
aV300381
p571
aV600039
p572
aV600068
p573
aV600170
p574
aV600248
p575
aV600263
p576
aV600284
p577
aV600321
p578
aV600326
p579
aV600491
p580
aV600502
p581
aV600512
p582
aV600528
p583
aV600545
p584
aV600634
p585
aV600681
p586
aV600820
p587
aV600853
p588
aV600970
p589
aV600986
p590
aV601117
p591
aV601186
p592
aV601390
p593
aV601618
p594
aV601668
p595
aV601669
p596
aV601789
p597
aV601800
p598
aV601886
p599
aV603017
p600
aV603018
p601
aV603030
p602
aV603828
p603
aV603969
p604
aV000010
p605
aV000023
p606
aV000055
p607
aV000065
p608
aV000090
p609
aV000498
p610
aV000509
p611
aV000619
p612
aV000786
p613
aV000928
p614
aV000961
p615
aV002043
p616
aV002047
p617
aV002051
p618
aV002060
p619
aV002062
p620
aV002066
p621
aV002081
p622
aV002116
p623
aV002135
p624
aV002140
p625
aV002163
p626
aV002178
p627
aV002205
p628
aV002225
p629
aV002247
p630
aV002271
p631
aV002307
p632
aV002310
p633
aV002314
p634
aV002325
p635
aV002372
p636
aV002375
p637
aV002392
p638
aV002398
p639
aV002431
p640
aV002468
p641
aV002469
p642
aV002482
p643
aV002542
p644
aV002586
p645
aV002596
p646
aV002620
p647
aV002628
p648
aV002652
p649
aV002659
p650
aV002663
p651
aV002671
p652
aV002713
p653
aV002717
p654
aV002738
p655
aV002742
p656
aV300080
p657
aV300117
p658
aV300163
p659
aV300284
p660
aV300344
p661
aV300374
p662
aV600143
p663
aV600146
p664
aV600444
p665
aV600458
p666
aV600589
p667
aV603806
p668
aV000407
p669
aV000859
p670
aV000973
p671
aV002002
p672
aV002108
p673
aV002243
p674
aV002263
p675
aV002324
p676
aV002343
p677
aV002420
p678
aV002457
p679
aV002464
p680
aV002522
p681
aV002585
p682
aV002641
p683
aV002676
p684
aV002694
p685
aV002735
p686
aV300169
p687
aV300198
p688
aV300218
p689
aV300221
p690
aV300230
p691
aV300305
p692
aV300321
p693
aV300325
p694
aV300393
p695
aV600056
p696
aV600122
p697
aV600136
p698
aV600280
p699
aV600306
p700
aV600327
p701
aV600361
p702
aV600415
p703
aV600511
p704
aV600515
p705
aV600628
p706
aV600631
p707
aV600655
p708
aV600682
p709
aV600693
p710
aV600694
p711
aV600697
p712
aV600712
p713
aV600713
p714
aV600723
p715
aV600729
p716
aV600738
p717
aV600753
p718
aV600774
p719
aV600778
p720
aV600785
p721
aV600790
p722
aV600814
p723
aV600821
p724
aV600824
p725
aV600827
p726
aV600828
p727
aV600833
p728
aV600838
p729
aV600856
p730
aV600857
p731
aV600858
p732
aV600859
p733
aV600861
p734
aV600865
p735
aV600891
p736
aV600898
p737
aV600998
p738
aV601010
p739
aV601116
p740
aV601607
p741
aV601933
p742
aV603123
p743
aV603368
p744
aV603883
p745
aV603939
p746
aV000026
p747
aV000028
p748
aV000062
p749
aV000408
p750
aV000411
p751
aV000416
p752
aV000417
p753
aV000419
p754
aV000501
p755
aV000516
p756
aV000560
p757
aV000564
p758
aV000587
p759
aV000591
p760
aV000638
p761
aV000679
p762
aV000705
p763
aV000715
p764
aV000759
p765
aV000785
p766
aV000829
p767
aV000882
p768
aV000889
p769
aV000906
p770
aV000987
p771
aV002024
p772
aV002187
p773
aV002251
p774
aV002264
p775
aV002277
p776
aV002336
p777
aV002344
p778
aV002416
p779
aV002419
p780
aV002441
p781
aV002462
p782
aV002556
p783
aV002561
p784
aV002589
p785
aV002697
p786
aV300022
p787
aV300413
p788
aV600070
p789
aV600152
p790
aV600156
p791
aV600220
p792
aV600232
p793
aV600370
p794
aV600448
p795
aV600493
p796
aV600626
p797
aV600630
p798
aV600689
p799
aV600735
p800
aV600851
p801
aV600987
p802
aV601339
p803
aV601599
p804
aV603558
p805
aV603889
p806
aV000018
p807
aV000045
p808
aV000158
p809
aV000611
p810
aV000726
p811
aV000779
p812
aV000803
p813
aV000813
p814
aV000850
p815
aV000955
p816
aV000971
p817
aV000982
p818
aV002034
p819
aV002042
p820
aV002070
p821
aV002072
p822
aV002083
p823
aV002087
p824
aV002127
p825
aV002144
p826
aV002193
p827
aV002394
p828
aV002404
p829
aV002516
p830
aV600055
p831
aV600297
p832
aV600587
p833
aV600763
p834
aV603309
p835
aV000150
p836
aV002223
p837
aV002382
p838
aV002432
p839
aV002551
p840
aV002614
p841
aV300003
p842
aV300015
p843
aV300030
p844
aV300061
p845
aV300171
p846
aV300206
p847
aV300216
p848
aV300238
p849
aV300244
p850
aV300246
p851
aV300247
p852
aV300273
p853
aV300298
p854
aV300314
p855
aV300318
p856
aV300326
p857
aV300347
p858
aV300396
p859
aV300404
p860
aV300412
p861
aV600111
p862
aV600139
p863
aV600205
p864
aV600219
p865
aV600255
p866
aV600259
p867
aV600296
p868
aV600311
p869
aV600331
p870
aV600338
p871
aV600362
p872
aV600390
p873
aV600432
p874
aV600456
p875
aV600459
p876
aV600489
p877
aV600497
p878
aV600531
p879
aV600547
p880
aV600549
p881
aV600595
p882
aV600673
p883
aV600711
p884
aV600714
p885
aV600768
p886
aV600888
p887
aV600961
p888
aV601137
p889
aV601168
p890
aV601600
p891
aV601677
p892
aV601899
p893
aV601958
p894
aV000060
p895
aV000426
p896
aV000587
p897
aV000602
p898
aV000603
p899
aV000612
p900
aV000630
p901
aV000657
p902
aV000697
p903
aV000751
p904
aV000758
p905
aV000762
p906
aV000807
p907
aV000831
p908
aV000878
p909
aV000960
p910
aV000962
p911
aV002082
p912
aV002114
p913
aV002149
p914
aV002155
p915
aV002160
p916
aV002167
p917
aV002171
p918
aV002182
p919
aV002203
p920
aV002237
p921
aV002295
p922
aV002333
p923
aV002340
p924
aV002378
p925
aV002379
p926
aV002428
p927
aV002460
p928
aV002501
p929
aV002540
p930
aV002578
p931
aV002617
p932
aV300034
p933
aV600167
p934
aV600168
p935
aV600187
p936
aV600283
p937
aV600323
p938
aV600333
p939
aV600461
p940
aV600617
p941
aV600635
p942
aV600649
p943
aV600719
p944
aV600758
p945
aV600917
p946
aV600982
p947
aV601139
p948
aV601158
p949
aV601199
p950
aV000593
p951
aV000605
p952
aV000669
p953
aV000685
p954
aV000692
p955
aV000695
p956
aV002267
p957
aV002700
p958
aV600089
p959
aV600192
p960
aV600268
p961
aV600290
p962
aV600312
p963
aV600416
p964
aV600517
p965
aV600525
p966
aV600550
p967
aV600580
p968
aV600590
p969
aV600875
p970
aV600973
p971
aV601126
p972
aV601179
p973
aV601558
p974
aV601700
p975
aV601727
p976
aV601877
p977
aV603333
p978
aV603618
p979
aV000400
p980
aV000585
p981
aV000682
p982
aV000806
p983
aV000967
p984
aV002028
p985
aV002074
p986
aV002112
p987
aV002123
p988
aV002130
p989
aV002168
p990
aV002169
p991
aV002202
p992
aV002212
p993
aV002227
p994
aV002276
p995
aV002300
p996
aV002323
p997
aV002350
p998
aV002358
p999
aV002451
p1000
aV002471
p1001
aV002498
p1002
aV002531
p1003
aV002533
p1004
aV002560
p1005
aV002622
p1006
aV002660
p1007
aV300001
p1008
aV300004
p1009
aV300018
p1010
aV300040
p1011
aV300048
p1012
aV300062
p1013
aV300069
p1014
aV300120
p1015
aV300125
p1016
aV300129
p1017
aV300141
p1018
aV300153
p1019
aV300208
p1020
aV300341
p1021
aV300372
p1022
aV300444
p1023
aV600069
p1024
aV600103
p1025
aV600163
p1026
aV600235
p1027
aV600308
p1028
aV600356
p1029
aV600433
p1030
aV600462
p1031
aV600567
p1032
aV600793
p1033
aV600963
p1034
aV600966
p1035
aV000488
p1036
aV000815
p1037
aV000820
p1038
aV000833
p1039
aV002012
p1040
aV002067
p1041
aV002078
p1042
aV002235
p1043
aV002303
p1044
aV002511
p1045
aV002521
p1046
aV002565
p1047
aV600072
p1048
aV600150
p1049
aV600685
p1050
aV601890
p1051
aV601989
p1052
aV002608
p1053
aV300008
p1054
aV300123
p1055
aV600121
p1056
aV600123
p1057
aV600157
p1058
aV600179
p1059
aV600188
p1060
aV600348
p1061
aV600381
p1062
aV600395
p1063
aV600397
p1064
aV600403
p1065
aV600408
p1066
aV600508
p1067
aV600546
p1068
aV600652
p1069
aV600714
p1070
aV600721
p1071
aV600725
p1072
aV600740
p1073
aV600792
p1074
aV600971
p1075
aV600997
p1076
aV601001
p1077
aV601011
p1078
aV601015
p1079
aV601088
p1080
aV601101
p1081
aV601225
p1082
aV601666
p1083
aV601699
p1084
aV601898
p1085
aV601918
p1086
aV000034
p1087
aV000552
p1088
aV000571
p1089
aV000723
p1090
aV000780
p1091
aV000933
p1092
aV000937
p1093
aV000968
p1094
aV000983
p1095
aV002128
p1096
aV600073
p1097
aV600186
p1098
aV600191
p1099
aV600260
p1100
aV600298
p1101
aV600300
p1102
aV600305
p1103
aV600419
p1104
aV600429
p1105
aV600597
p1106
aV600695
p1107
aV600737
p1108
aV600866
p1109
aV600872
p1110
aV600873
p1111
aV600887
p1112
aV600962
p1113
aV603020
p1114
aV603288
p1115
aV000019
p1116
aV000529
p1117
aV000639
p1118
aV000716
p1119
aV000796
p1120
aV000848
p1121
aV000893
p1122
aV000895
p1123
aV000911
p1124
aV000930
p1125
aV000972
p1126
aV002216
p1127
aV002220
p1128
aV002286
p1129
aV002329
p1130
aV002330
p1131
aV002387
p1132
aV002481
p1133
aV002495
p1134
aV002507
p1135
aV002515
p1136
aV002557
p1137
aV002568
p1138
aV002570
p1139
aV002582
p1140
aV002604
p1141
aV002626
p1142
aV002650
p1143
aV002661
p1144
aV002695
p1145
aV002702
p1146
aV002719
p1147
aV002726
p1148
aV002732
p1149
aV300138
p1150
aV300146
p1151
aV300149
p1152
aV300175
p1153
aV300401
p1154
aV600145
p1155
aV600286
p1156
aV603268
p1157
aV002102
p1158
aV002162
p1159
aV300089
p1160
aV300234
p1161
aV300409
p1162
aV600302
p1163
aV600610
p1164
aV600843
p1165
aV000666
p1166
aV002021
p1167
aV002196
p1168
aV002722
p1169
aV300384
p1170
aV600001
p1171
aV600005
p1172
aV600010
p1173
aV600019
p1174
aV600022
p1175
aV600102
p1176
aV600117
p1177
aV600126
p1178
aV600165
p1179
aV600193
p1180
aV600231
p1181
aV600282
p1182
aV600307
p1183
aV600357
p1184
aV600399
p1185
aV600477
p1186
aV600496
p1187
aV600507
p1188
aV600532
p1189
aV600558
p1190
aV600569
p1191
aV600581
p1192
aV600782
p1193
aV600784
p1194
aV600808
p1195
aV600882
p1196
aV600992
p1197
aV601003
p1198
aV601005
p1199
aV601028
p1200
aV601969
p1201
aV000409
p1202
aV000629
p1203
aV000655
p1204
aV000708
p1205
aV000709
p1206
aV000717
p1207
aV000761
p1208
aV000778
p1209
aV000825
p1210
aV000890
p1211
aV000898
p1212
aV000932
p1213
aV000959
p1214
aV000969
p1215
aV002075
p1216
aV002110
p1217
aV002132
p1218
aV002318
p1219
aV002359
p1220
aV002423
p1221
aV002443
p1222
aV002478
p1223
aV002487
p1224
aV002524
p1225
aV002541
p1226
aV002545
p1227
aV002615
p1228
aV002743
p1229
aV300345
p1230
aV600008
p1231
aV600292
p1232
aV600874
p1233
aV603126
p1234
aV603588
p1235
aV603686
p1236
aV000544
p1237
aV000598
p1238
aV000826
p1239
aV002200
p1240
aV002549
p1241
aV002573
p1242
aV002616
p1243
aV002672
p1244
aV300055
p1245
aV300070
p1246
aV300156
p1247
aV300172
p1248
aV300187
p1249
aV300190
p1250
aV300197
p1251
aV300262
p1252
aV300332
p1253
aV300335
p1254
aV300355
p1255
aV300388
p1256
aV300422
p1257
aV600059
p1258
aV600084
p1259
aV600090
p1260
aV600132
p1261
aV600197
p1262
aV600199
p1263
aV600238
p1264
aV600365
p1265
aV600519
p1266
aV600543
p1267
aV600559
p1268
aV600573
p1269
aV600600
p1270
aV600616
p1271
aV600702
p1272
aV600779
p1273
aV600809
p1274
aV601579
p1275
aV603369
p1276
aV000557
p1277
aV000568
p1278
aV000596
p1279
aV000729
p1280
aV000752
p1281
aV000799
p1282
aV000858
p1283
aV000860
p1284
aV000869
p1285
aV000929
p1286
aV000995
p1287
aV002304
p1288
aV002461
p1289
aV002646
p1290
aV600025
p1291
aV600903
p1292
aV600933
p1293
aV601019
p1294
aV601108
p1295
aV603076
p1296
aV603083
p1297
aV603260
p1298
aV603278
p1299
aV603289
p1300
aV603365
p1301
aV603396
p1302
aV603466
p1303
aV603477
p1304
aV603499
p1305
aV603507
p1306
aV603605
p1307
aV603607
p1308
aV603619
p1309
aV603659
p1310
aV603661
p1311
aV603683
p1312
aV603685
p1313
aV603711
p1314
aV603722
p1315
aV603809
p1316
aV603829
p1317
aV603848
p1318
aV603856
p1319
aV603890
p1320
aV603912
p1321
aV603916
p1322
aV603917
p1323
aV603922
p1324
aV603937
p1325
aV603970
p1326
aV002864
p1327
aV002905
p1328
aV002907
p1329
aV002908
p1330
aV002909
p1331
aV002910
p1332
aV002911
p1333
aV002912
p1334
aV002913
p1335
aV002915
p1336
aV002916
p1337
aV002917
p1338
aV002919
p1339
aV300708
p1340
aV300709
p1341
aV300710
p1342
aV300711
p1343
aV300712
p1344
aV300713
p1345
aV300715
p1346
aV300716
p1347
aV300717
p1348
aV300718
p1349
aV300719
p1350
aV300720
p1351
aV300721
p1352
aV300722
p1353
aV300723
p1354
aV300725
p1355
aV300726
p1356
aV300727
p1357
aV300729
p1358
aV300730
p1359
aV300731
p1360
aV300732
p1361
aV600112
p1362
aV600202
p1363
aV600379
p1364
aV600405
p1365
aV600468
p1366
aV600482
p1367
aV600560
p1368
aV600577
p1369
aV600847
p1370
aV600885
p1371
aV601311
p1372
aV601616
p1373
aV603015
p1374
aV603606
p1375
aV603703
p1376
aV603988
p1377
aV000049
p1378
aV000922
p1379
aV002164
p1380
aV002176
p1381
aV002249
p1382
aV002266
p1383
aV002298
p1384
aV002309
p1385
aV002322
p1386
aV002334
p1387
aV002335
p1388
aV002339
p1389
aV002364
p1390
aV002380
p1391
aV002452
p1392
aV002546
p1393
aV002576
p1394
aV002580
p1395
aV002606
p1396
aV002617
p1397
aV002647
p1398
aV002664
p1399
aV002665
p1400
aV002670
p1401
aV002684
p1402
aV002706
p1403
aV002730
p1404
aV002733
p1405
aV300068
p1406
aV300140
p1407
aV300217
p1408
aV300222
p1409
aV300252
p1410
aV300265
p1411
aV300274
p1412
aV300283
p1413
aV300356
p1414
aV300376
p1415
aV300403
p1416
aV300407
p1417
aV300438
p1418
aV300447
p1419
aV600037
p1420
aV600088
p1421
aV600234
p1422
aV600373
p1423
aV600551
p1424
aV600633
p1425
aV600637
p1426
aV600757
p1427
aV600825
p1428
aV600831
p1429
aV600959
p1430
aV601098
p1431
aV601801
p1432
aV601928
p1433
aV601929
p1434
aV601999
p1435
aV000156
p1436
aV000504
p1437
aV000607
p1438
aV000665
p1439
aV000719
p1440
aV000793
p1441
aV000835
p1442
aV000917
p1443
aV002071
p1444
aV002143
p1445
aV002181
p1446
aV002238
p1447
aV002292
p1448
aV002624
p1449
aV002712
p1450
aV002739
p1451
aV300027
p1452
aV300133
p1453
aV300148
p1454
aV300251
p1455
aV300291
p1456
aV300336
p1457
aV300364
p1458
aV300426
p1459
aV600075
p1460
aV600078
p1461
aV600091
p1462
aV600135
p1463
aV600141
p1464
aV600155
p1465
aV600160
p1466
aV600228
p1467
aV600229
p1468
aV600249
p1469
aV600273
p1470
aV600277
p1471
aV600281
p1472
aV600299
p1473
aV600301
p1474
aV600309
p1475
aV600315
p1476
aV600319
p1477
aV600328
p1478
aV600339
p1479
aV600352
p1480
aV600367
p1481
aV600378
p1482
aV600409
p1483
aV600481
p1484
aV600490
p1485
aV600599
p1486
aV600618
p1487
aV600636
p1488
aV600722
p1489
aV600746
p1490
aV600844
p1491
aV600985
p1492
aV601118
p1493
aV601208
p1494
aV601216
p1495
aV601678
p1496
aV603002
p1497
aV603010
p1498
aV603077
p1499
aV603188
p1500
aV000510
p1501
aV000523
p1502
aV000545
p1503
aV000565
p1504
aV000627
p1505
aV000635
p1506
aV000662
p1507
aV000683
p1508
aV000698
p1509
aV000707
p1510
aV000737
p1511
aV000755
p1512
aV000818
p1513
aV000822
p1514
aV000887
p1515
aV000985
p1516
aV000990
p1517
aV002010
p1518
aV002014
p1519
aV002037
p1520
aV002053
p1521
aV002054
p1522
aV002061
p1523
aV002068
p1524
aV002092
p1525
aV002094
p1526
aV002096
p1527
aV002109
p1528
aV002125
p1529
aV002136
p1530
aV002145
p1531
aV002165
p1532
aV002192
p1533
aV002201
p1534
aV002211
p1535
aV002217
p1536
aV002224
p1537
aV002226
p1538
aV002246
p1539
aV002250
p1540
aV002256
p1541
aV002319
p1542
aV002326
p1543
aV002341
p1544
aV002360
p1545
aV002361
p1546
aV002377
p1547
aV002381
p1548
aV002386
p1549
aV002395
p1550
aV002407
p1551
aV002408
p1552
aV002409
p1553
aV002411
p1554
aV002440
p1555
aV002442
p1556
aV002450
p1557
aV002453
p1558
aV002455
p1559
aV600048
p1560
aV600052
p1561
aV600053
p1562
aV600067
p1563
aV600077
p1564
aV600082
p1565
aV600094
p1566
aV600095
p1567
aV600113
p1568
aV600133
p1569
aV600159
p1570
aV600162
p1571
aV600173
p1572
aV600175
p1573
aV600185
p1574
aV600208
p1575
aV600223
p1576
aV600225
p1577
aV600239
p1578
aV600240
p1579
aV600246
p1580
aV600266
p1581
aV600322
p1582
aV600325
p1583
aV600340
p1584
aV600376
p1585
aV600383
p1586
aV600393
p1587
aV600463
p1588
aV600503
p1589
aV600510
p1590
aV600533
p1591
aV600565
p1592
aV600568
p1593
aV600606
p1594
aV600615
p1595
aV600621
p1596
aV600638
p1597
aV600641
p1598
aV600657
p1599
aV600663
p1600
aV600665
p1601
aV600675
p1602
aV600683
p1603
aV600684
p1604
aV600696
p1605
aV600716
p1606
aV600724
p1607
aV600732
p1608
aV600733
p1609
aV600743
p1610
aV600745
p1611
aV600748
p1612
aV600767
p1613
aV600773
p1614
aV600791
p1615
aV600807
p1616
aV600823
p1617
aV600862
p1618
aV600890
p1619
aV601588
p1620
aV000002
p1621
aV000005
p1622
aV000006
p1623
aV000009
p1624
aV000011
p1625
aV000014
p1626
aV000024
p1627
aV000029
p1628
aV000031
p1629
aV000036
p1630
aV000038
p1631
aV000040
p1632
aV000042
p1633
aV000043
p1634
aV000046
p1635
aV000056
p1636
aV000402
p1637
aV000502
p1638
aV000505
p1639
aV000506
p1640
aV000514
p1641
aV000517
p1642
aV000526
p1643
aV000534
p1644
aV000537
p1645
aV000540
p1646
aV000558
p1647
aV000567
p1648
aV000573
p1649
aV000608
p1650
aV000609
p1651
aV000616
p1652
aV000620
p1653
aV000631
p1654
aV000656
p1655
aV000667
p1656
aV000668
p1657
aV000671
p1658
aV000691
p1659
aV600000
p1660
aV600015
p1661
aV600016
p1662
aV600030
p1663
aV600036
p1664
aV600109
p1665
aV600291
p1666
aV600369
p1667
aV600643
p1668
aV600705
p1669
aV600816
p1670
aV600830
p1671
aV600837
p1672
aV600958
p1673
aV600999
p1674
aV601009
p1675
aV601099
p1676
aV601166
p1677
aV601169
p1678
aV601198
p1679
aV601288
p1680
aV601318
p1681
aV601328
p1682
aV601336
p1683
aV601377
p1684
aV601398
p1685
aV601555
p1686
aV601601
p1687
aV601628
p1688
aV601688
p1689
aV601788
p1690
aV601818
p1691
aV601901
p1692
aV601939
p1693
aV601988
p1694
aV601998
p1695
aV000001
p1696
aV000166
p1697
aV000415
p1698
aV000562
p1699
aV000563
p1700
aV000686
p1701
aV000712
p1702
aV000728
p1703
aV000750
p1704
aV000776
p1705
aV000783
p1706
aV002142
p1707
aV002500
p1708
aV002673
p1709
aV002736
p1710
aV600065
p1711
aV600092
p1712
aV600172
p1713
aV600516
p1714
aV600607
p1715
aV600625
p1716
aV600670
p1717
aV600700
p1718
aV600709
p1719
aV600752
p1720
aV600783
p1721
aV600788
p1722
aV600813
p1723
aV600849
p1724
aV600852
p1725
aV600899
p1726
aV603022
p1727
aV603023
p1728
aV603026
p1729
aV603108
p1730
aV603116
p1731
aV603198
p1732
aV603227
p1733
aV603300
p1734
aV603311
p1735
aV603566
p1736
aV603568
p1737
aV603598
p1738
aV603669
p1739
aV603688
p1740
aV603718
p1741
aV603885
p1742
aV603901
p1743
aV603918
p1744
aV603968
p1745
aV603989
p1746
aV900901
p1747
aV900902
p1748
aV900903
p1749
aV900904
p1750
aV900905
p1751
aV900906
p1752
aV900907
p1753
aV900908
p1754
aV900909
p1755
aV900910
p1756
aV900911
p1757
aV900912
p1758
aV900913
p1759
aV900914
p1760
aV900915
p1761
aV900916
p1762
aV900917
p1763
aV900918
p1764
aV900919
p1765
aV900920
p1766
aV900921
p1767
aV900922
p1768
aV900923
p1769
aV900924
p1770
aV900925
p1771
aV900926
p1772
aV900927
p1773
aV900928
p1774
aV900929
p1775
aV900930
p1776
aV900932
p1777
aV900933
p1778
aV900934
p1779
aV900935
p1780
aV900936
p1781
aV900937
p1782
aV900938
p1783
aV900939
p1784
aV900940
p1785
aV900941
p1786
aV900942
p1787
aV900943
p1788
aV900945
p1789
aV900946
p1790
aV900947
p1791
aV900948
p1792
aV900951
p1793
aV900952
p1794
aV900953
p1795
aV900955
p1796
aV900956
p1797
aV900957
p1798
aV000003
p1799
aV000013
p1800
aV000015
p1801
aV000047
p1802
aV000405
p1803
aV000511
p1804
aV000556
p1805
aV000583
p1806
aV000658
p1807
aV000660
p1808
aV000675
p1809
aV000689
p1810
aV600007
p1811
aV600064
p1812
aV600215
p1813
aV600604
p1814
aV600639
p1815
aV600648
p1816
aV600658
p1817
aV600736
p1818
aV600895
p1819
aV000628
p1820
aV600050
p1821
aV600074
p1822
aV600076
p1823
aV600100
p1824
aV600105
p1825
aV600130
p1826
aV600198
p1827
aV600271
p1828
aV600288
p1829
aV600289
p1830
aV600330
p1831
aV600345
p1832
aV600406
p1833
aV600410
p1834
aV600446
p1835
aV600455
p1836
aV600476
p1837
aV600485
p1838
aV600487
p1839
aV600498
p1840
aV600522
p1841
aV600536
p1842
aV600556
p1843
aV600562
p1844
aV600570
p1845
aV600571
p1846
aV600588
p1847
aV600601
p1848
aV600608
p1849
aV600654
p1850
aV600677
p1851
aV600680
p1852
aV600718
p1853
aV600728
p1854
aV600734
p1855
aV600756
p1856
aV600764
p1857
aV600775
p1858
aV600776
p1859
aV600797
p1860
aV600804
p1861
aV600845
p1862
aV600850
p1863
aV600990
p1864
aV601519
p1865
aV603000
p1866
aV603019
p1867
aV603025
p1868
aV603636
p1869
aV000021
p1870
aV000032
p1871
aV000035
p1872
aV000063
p1873
aV000066
p1874
aV000070
p1875
aV000503
p1876
aV000532
p1877
aV000547
p1878
aV000555
p1879
aV000561
p1880
aV000586
p1881
aV000681
p1882
aV000711
p1883
aV000748
p1884
aV000787
p1885
aV000801
p1886
aV000805
p1887
aV000836
p1888
aV000851
p1889
aV000892
p1890
aV000938
p1891
aV000948
p1892
aV000970
p1893
aV000977
p1894
aV000997
p1895
aV002017
p1896
aV002027
p1897
aV002052
p1898
aV002063
p1899
aV002065
p1900
aV002073
p1901
aV002089
p1902
aV002090
p1903
aV002093
p1904
aV002095
p1905
aV002115
p1906
aV002148
p1907
aV002151
p1908
aV002152
p1909
aV002153
p1910
aV002161
p1911
aV002174
p1912
aV002177
p1913
aV002180
p1914
aV002184
p1915
aV002194
p1916
aV002195
p1917
aV002230
p1918
aV002231
p1919
aV002232
p1920
aV600086
p1921
aV600107
p1922
aV600137
p1923
aV600177
p1924
aV600233
p1925
aV600272
p1926
aV600295
p1927
aV600398
p1928
aV600400
p1929
aV600439
p1930
aV600612
p1931
aV600884
p1932
aV601566
p1933
aV601718
p1934
aV603001
p1935
aV603518
p1936
aV603555
p1937
aV603808
p1938
aV002003
p1939
aV002029
p1940
aV002036
p1941
aV002044
p1942
aV002098
p1943
aV002154
p1944
aV002239
p1945
aV002269
p1946
aV002291
p1947
aV002293
p1948
aV002327
p1949
aV002345
p1950
aV002397
p1951
aV002425
p1952
aV002485
p1953
aV002486
p1954
aV002494
p1955
aV002503
p1956
aV002517
p1957
aV002563
p1958
aV002569
p1959
aV002574
p1960
aV002612
p1961
aV002634
p1962
aV002640
p1963
aV002656
p1964
aV002674
p1965
aV002687
p1966
aV002731
p1967
aV002740
p1968
aV300005
p1969
aV600083
p1970
aV600151
p1971
aV600171
p1972
aV600183
p1973
aV600203
p1974
aV600206
p1975
aV600207
p1976
aV600237
p1977
aV600353
p1978
aV600355
p1979
aV600360
p1980
aV600363
p1981
aV600401
p1982
aV600460
p1983
aV600478
p1984
aV600537
p1985
aV600563
p1986
aV600584
p1987
aV600602
p1988
aV600667
p1989
aV600703
p1990
aV600707
p1991
aV600747
p1992
aV600817
p1993
aV600980
p1994
aV601012
p1995
aV601231
p1996
aV601908
p1997
aV603005
p1998
aV603118
p1999
aV603328
p2000
aV603678
p2001
aV000020
p2002
aV000050
p2003
aV000058
p2004
aV000068
p2005
aV000413
p2006
aV000536
p2007
aV000636
p2008
aV000670
p2009
aV000725
p2010
aV000727
p2011
aV000733
p2012
aV000810
p2013
aV000823
p2014
aV002025
p2015
aV002045
p2016
aV002049
p2017
aV002055
p2018
aV002056
p2019
aV002057
p2020
aV002079
p2021
aV002104
p2022
aV002106
p2023
aV002119
p2024
aV002129
p2025
aV002134
p2026
aV002137
p2027
aV002138
p2028
aV002139
p2029
aV002141
p2030
aV002156
p2031
aV002179
p2032
aV002185
p2033
aV002188
p2034
aV002189
p2035
aV002199
p2036
aV002217
p2037
aV002218
p2038
aV002222
p2039
aV002241
p2040
aV002273
p2041
aV002288
p2042
aV002289
p2043
aV002371
p2044
aV002388
p2045
aV002389
p2046
aV002402
p2047
aV002426
p2048
aV002436
p2049
aV002449
p2050
aV002456
p2051
aV002463
p2052
aV002475
p2053
aV002484
p2054
aV002504
p2055
aV002506
p2056
aV002512
p2057
aV002579
p2058
aV002587
p2059
aV002600
p2060
aV002618
p2061
aV002636
p2062
aV002638
p2063
aV002654
p2064
aV002655
p2065
aV002724
p2066
aV002729
p2067
aV002745
p2068
aV300014
p2069
aV600011
p2070
aV600021
p2071
aV600023
p2072
aV600027
p2073
aV600098
p2074
aV600101
p2075
aV600110
p2076
aV600116
p2077
aV600131
p2078
aV600236
p2079
aV600310
p2080
aV600396
p2081
aV600452
p2082
aV600483
p2083
aV600505
p2084
aV600509
p2085
aV600578
p2086
aV600642
p2087
aV600644
p2088
aV600674
p2089
aV600726
p2090
aV600744
p2091
aV600769
p2092
aV600780
p2093
aV600795
p2094
aV600863
p2095
aV600864
p2096
aV600868
p2097
aV600869
p2098
aV600886
p2099
aV600900
p2100
aV600969
p2101
aV600979
p2102
aV600995
p2103
aV601016
p2104
aV601991
p2105
aV000027
p2106
aV000037
p2107
aV000531
p2108
aV000539
p2109
aV000543
p2110
aV000600
p2111
aV000601
p2112
aV000602
p2113
aV000690
p2114
aV000720
p2115
aV000722
p2116
aV000767
p2117
aV000791
p2118
aV000862
p2119
aV000875
p2120
aV000883
p2121
aV000899
p2122
aV000939
p2123
aV000958
p2124
aV000966
p2125
aV000993
p2126
aV001896
p2127
aV002039
p2128
aV002479
p2129
aV002692
p2130
aV300423
p2131
aV600006
p2132
aV600066
p2133
aV600081
p2134
aV600093
p2135
aV600104
p2136
aV600148
p2137
aV600166
p2138
aV600178
p2139
aV600182
p2140
aV600213
p2141
aV600303
p2142
aV600335
p2143
aV600375
p2144
aV600418
p2145
aV600469
p2146
aV600480
p2147
aV600501
p2148
aV600523
p2149
aV600609
p2150
aV600623
p2151
aV600653
p2152
aV600660
p2153
aV600676
p2154
aV600686
p2155
aV600698
p2156
aV600699
p2157
aV600715
p2158
aV600741
p2159
aV600742
p2160
aV600760
p2161
aV600960
p2162
aV600991
p2163
aV601058
p2164
aV601238
p2165
aV601258
p2166
aV601633
p2167
aV601689
p2168
aV601799
p2169
aV601965
p2170
aV603006
p2171
aV603009
p2172
aV603158
p2173
aV603166
p2174
aV603306
p2175
aV603788
p2176
aV603997
p2177
aV000025
p2178
aV000030
p2179
aV000338
p2180
aV000550
p2181
aV000559
p2182
aV000572
p2183
aV000581
p2184
aV000589
p2185
aV000599
p2186
aV000622
p2187
aV000625
p2188
aV000700
p2189
aV000710
p2190
aV000753
p2191
aV000757
p2192
aV000760
p2193
aV000800
p2194
aV000868
p2195
aV000927
p2196
aV000951
p2197
aV000957
p2198
aV002013
p2199
aV002031
p2200
aV002048
p2201
aV002085
p2202
aV002126
p2203
aV002190
p2204
aV002213
p2205
aV002265
p2206
aV002283
p2207
aV002284
p2208
aV002355
p2209
aV002363
p2210
aV002406
p2211
aV002434
p2212
aV002454
p2213
aV002488
p2214
aV002510
p2215
aV002536
p2216
aV002555
p2217
aV002590
p2218
aV002593
p2219
aV002594
p2220
aV002602
p2221
aV002607
p2222
aV002625
p2223
aV002662
p2224
aV002703
p2225
aV002708
p2226
aV002715
p2227
aV002725
p2228
aV300100
p2229
aV300176
p2230
aV300258
p2231
aV600337
p2232
aV600978
p2233
aV603008
p2234
aV603600
p2235
aV603818
p2236
aV603898
p2237
aV000910
p2238
aV002084
p2239
aV002120
p2240
aV002240
p2241
aV002259
p2242
aV002489
p2243
aV002572
p2244
aV002631
p2245
aV002718
p2246
aV002751
p2247
aV600096
p2248
aV600226
p2249
aV600227
p2250
aV600230
p2251
aV600389
p2252
aV600423
p2253
aV600426
p2254
aV600470
p2255
aV600486
p2256
aV600538
p2257
aV600596
p2258
aV600691
p2259
aV600727
p2260
aV600731
p2261
aV600796
p2262
aV600803
p2263
aV603599
p2264
aV000155
p2265
aV000422
p2266
aV000525
p2267
aV000553
p2268
aV000578
p2269
aV000731
p2270
aV000792
p2271
aV000830
p2272
aV000902
p2273
aV000912
p2274
aV000950
p2275
aV000953
p2276
aV002004
p2277
aV002018
p2278
aV002113
p2279
aV002170
p2280
aV002215
p2281
aV002258
p2282
aV002274
p2283
aV002391
p2284
aV002470
p2285
aV002496
p2286
aV002513
p2287
aV002538
p2288
aV002539
p2289
aV002588
p2290
aV002734
p2291
aV002749
p2292
aV300261
p2293
aV600054
p2294
aV600138
p2295
aV600258
p2296
aV600358
p2297
aV600555
p2298
aV600593
p2299
aV600640
p2300
aV600706
p2301
aV600749
p2302
aV600754
p2303
aV601007
p2304
aV601888
p2305
aV603099
p2306
aV603199
p2307
aV603869
p2308
aV000007
p2309
aV000033
p2310
aV000069
p2311
aV000428
p2312
aV000430
p2313
aV000524
p2314
aV000610
p2315
aV000613
p2316
aV000721
p2317
aV000802
p2318
aV000888
p2319
aV000978
p2320
aV002033
p2321
aV002059
p2322
aV002159
p2323
aV002186
p2324
aV002306
p2325
aV002558
p2326
aV002707
p2327
aV300144
p2328
aV300178
p2329
aV600217
p2330
aV600318
p2331
aV600425
p2332
aV600449
p2333
aV600539
p2334
aV600553
p2335
aV600585
p2336
aV600668
p2337
aV600678
p2338
aV600720
p2339
aV600801
p2340
aV600802
p2341
aV600881
p2342
aV600883
p2343
aV601992
p2344
aV000401
p2345
aV000546
p2346
aV000672
p2347
aV000789
p2348
aV000877
p2349
aV000885
p2350
aV000935
p2351
aV002233
p2352
aV002302
p2353
aV002346
p2354
aV002619
p2355
aV600058
p2356
aV600120
p2357
aV600128
p2358
aV600153
p2359
aV600241
p2360
aV600247
p2361
aV600250
p2362
aV600278
p2363
aV600287
p2364
aV600382
p2365
aV600500
p2366
aV600605
p2367
aV600704
p2368
aV600739
p2369
aV600755
p2370
aV600822
p2371
aV600826
p2372
aV600981
p2373
aV000151
p2374
aV000626
p2375
aV002091
p2376
aV600099
p2377
aV600877
p2378
aV601777
p2379
aV603766
p2380
aV000913
p2381
aV001696
p2382
aV600210
p2383
aV600836
p2384
aV600880
p2385
aV601515
p2386
aV603729
p2387
aV000659
p2388
aV000673
p2389
aV000812
p2390
aV002117
p2391
aV002191
p2392
aV002228
p2393
aV002229
p2394
aV002374
p2395
aV002400
p2396
aV002599
p2397
aV002701
p2398
aV002752
p2399
aV300057
p2400
aV300058
p2401
aV300071
p2402
aV600060
p2403
aV600261
p2404
aV600336
p2405
aV600690
p2406
aV600839
p2407
aV600854
p2408
aV600870
p2409
aV600983
p2410
aV603366
p2411
aV603519
p2412
aV000016
p2413
aV000100
p2414
aV000333
p2415
aV000418
p2416
aV000521
p2417
aV000527
p2418
aV000533
p2419
aV000541
p2420
aV000651
p2421
aV000921
p2422
aV002005
p2423
aV002032
p2424
aV002035
p2425
aV002076
p2426
aV002242
p2427
aV002260
p2428
aV002290
p2429
aV002403
p2430
aV002429
p2431
aV002473
p2432
aV002508
p2433
aV002543
p2434
aV002668
p2435
aV002677
p2436
aV002681
p2437
aV002705
p2438
aV002723
p2439
aV\u5b81\u6ce2\u8054\u5408
p2440
aV\u7f57\u987f\u53d1\u5c55
p2441
aV\u6c5f\u6cc9\u5b9e\u4e1a
p2442
aV\u5e7f\u6c47\u80fd\u6e90
p2443
aV\u7965\u6e90\u6587\u5316
p2444
aV\u5e7f\u6c47\u7269\u6d41
p2445
aV\u9e4f\u8d77\u79d1\u6280
p2446
aV\u5929\u5bb8\u80a1\u4efd
p2447
aV\u5149\u5927\u5609\u5b9d
p2448
aV\u590d\u65e6\u590d\u534e
p2449
aV\u540c\u8fbe\u521b\u4e1a
p2450
aV\u9000\u5e02\u535a\u5143
p2451
aV\u521a\u6cf0\u63a7\u80a1
p2452
aV\u5de5\u5927\u9ad8\u65b0
p2453
aV\u4e2d\u56fd\u9ad8\u79d1
p2454
aV\u7efc\u827a\u80a1\u4efd
p2455
aV\u65b0\u6f6e\u80fd\u6e90
p2456
aV\u5929\u6d25\u78c1\u5361
p2457
aV\u60a6\u8fbe\u6295\u8d44
p2458
aV\u4e1c\u65b9\u96c6\u56e2
p2459
aV\u4e1c\u65b9\u660e\u73e0
p2460
aV\u540c\u6d4e\u79d1\u6280
p2461
aV\u5927\u665f\u6587\u5316
p2462
aV\u795e\u5dde\u9ad8\u94c1
p2463
aV\u4e1c\u65b9\u5e02\u573a
p2464
aV\u5e7f\u4e1c\u7518\u5316
p2465
aV\u4e09\u6728\u96c6\u56e2
p2466
aV\u5408\u91d1\u6295\u8d44
p2467
aV\u6cf0\u8fbe\u80a1\u4efd
p2468
aV\u53a6\u95e8\u4fe1\u8fbe
p2469
aV\u4e2d\u4fe1\u56fd\u5b89
p2470
aV\u4e2d\u5e7f\u6838\u6280
p2471
aV\u6570\u6e90\u79d1\u6280
p2472
aVST\u4e1c\u5317\u9ad8
p2473
aV\u7696\u901a\u9ad8\u901f
p2474
aV\u4e2d\u539f\u9ad8\u901f
p2475
aV\u798f\u5efa\u9ad8\u901f
p2476
aV\u695a\u5929\u9ad8\u901f
p2477
aV\u91cd\u5e86\u8def\u6865
p2478
aV\u8d63\u7ca4\u9ad8\u901f
p2479
aV\u5c71\u4e1c\u9ad8\u901f
p2480
aV\u4e94\u6d32\u4ea4\u901a
p2481
aV\u5b81\u6caa\u9ad8\u901f
p2482
aV\u6df1\u9ad8\u901f
p2483
aV\u56db\u5ddd\u6210\u6e1d
p2484
aV\u9f99\u6c5f\u4ea4\u901a
p2485
aV\u5409\u6797\u9ad8\u901f
p2486
aV\u7ca4\u9ad8\u901f\uff21
p2487
aV\u6e56\u5357\u6295\u8d44
p2488
aV\u4e1c\u839e\u63a7\u80a1
p2489
aV\u6d77\u5357\u9ad8\u901f
p2490
aV\u73b0\u4ee3\u6295\u8d44
p2491
aV\u534e\u5317\u9ad8\u901f
p2492
aV\u56fd\u6295\u5b89\u4fe1
p2493
aV\u7696\u7ef4\u9ad8\u65b0
p2494
aV\u6c5f\u5357\u9ad8\u7ea4
p2495
aV\u795e\u9a6c\u80a1\u4efd
p2496
aV\u5357\u4eac\u5316\u7ea4
p2497
aV\u534e\u9f0e\u80a1\u4efd
p2498
aV\u6850\u6606\u80a1\u4efd
p2499
aV\u5409\u6797\u5316\u7ea4
p2500
aV\u54c8\u5de5\u667a\u80fd
p2501
aV\u4eac\u6c49\u80a1\u4efd
p2502
aV\u6052\u5929\u6d77\u9f99
p2503
aV\u534e\u8baf\u65b9\u821f
p2504
aV\u6052\u9038\u77f3\u5316
p2505
aV\u7f8e\u8fbe\u80a1\u4efd
p2506
aV\u534e\u897f\u80a1\u4efd
p2507
aV\u65b0\u4e61\u5316\u7ea4
p2508
aV\u534e\u94c1\u80a1\u4efd
p2509
aV\u971e\u5ba2\u73af\u4fdd
p2510
aV\u534e\u5cf0\u6c28\u7eb6
p2511
aV\u4e2d\u6750\u79d1\u6280
p2512
aV\u6fb3\u6d0b\u79d1\u6280
p2513
aV\u6d77 \u5229 \u5f97
p2514
aV\u6cf0\u548c\u65b0\u6750
p2515
aV\u5c24\u592b\u80a1\u4efd
p2516
aV\u8363\u76db\u77f3\u5316
p2517
aV\u534e\u5cf0\u8d85\u7ea4
p2518
aV\u4e09\u4e00\u91cd\u5de5
p2519
aV\u4e1c\u7766\u80a1\u4efd
p2520
aV*ST\u574a\u5c55
p2521
aV\u592a\u539f\u91cd\u5de5
p2522
aV\u5168\u67f4\u52a8\u529b
p2523
aV\u9752\u6d77\u534e\u9f0e
p2524
aV\u5317\u65b9\u80a1\u4efd
p2525
aV\u632f\u534e\u91cd\u5de5
p2526
aV\u6052\u529b\u80a1\u4efd
p2527
aV\u9f99\u51c0\u73af\u4fdd
p2528
aV\u4ef0\u5e06\u63a7\u80a1
p2529
aV\u5317\u65b9\u5bfc\u822a
p2530
aV\u534e\u5149\u80a1\u4efd
p2531
aV\u79d1\u8fbe\u6d01\u80fd
p2532
aV\u6587\u4e00\u79d1\u6280
p2533
aV\u83f2\u8fbe\u73af\u4fdd
p2534
aV\u5929\u534e\u9662
p2535
aV\u5929\u5730\u79d1\u6280
p2536
aV\u9f99\u6eaa\u80a1\u4efd
p2537
aV\u6d77\u7acb\u80a1\u4efd
p2538
aVST\u5e38\u6797
p2539
aV\u5b89\u5fbd\u5408\u529b
p2540
aV\u4e2d\u822a\u91cd\u673a
p2541
aV*ST\u6606\u673a
p2542
aV*ST\u53a6\u5de5
p2543
aV\u4e0a\u67f4\u80a1\u4efd
p2544
aV\u822a\u5929\u957f\u5cf0
p2545
aV*ST\u4eac\u57ce
p2546
aV\u5efa\u8bbe\u673a\u68b0
p2547
aV\u664b\u4ebf\u5b9e\u4e1a
p2548
aV\u4e00\u62d6\u80a1\u4efd
p2549
aV\u6052\u7acb\u6db2\u538b
p2550
aV*ST\u4e00\u91cd
p2551
aV\u676d\u9f7f\u524d\u8fdb
p2552
aV\u5409\u946b\u79d1\u6280
p2553
aV\u534e\u7535\u91cd\u5de5
p2554
aV*ST\u4e8c\u91cd
p2555
aV\u9655\u9f13\u52a8\u529b
p2556
aV\u4e2d\u4fe1\u91cd\u5de5
p2557
aV\u90d1\u7164\u673a
p2558
aV\u84dd\u79d1\u9ad8\u65b0
p2559
aV\u5408\u953b\u667a\u80fd
p2560
aV\u521b\u529b\u96c6\u56e2
p2561
aV\u5b81\u6ce2\u7cbe\u8fbe
p2562
aV\u5170\u77f3\u91cd\u88c5
p2563
aV\u5e94\u6d41\u80a1\u4efd
p2564
aV\u798f\u978d\u80a1\u4efd
p2565
aV\u6d3e\u601d\u80a1\u4efd
p2566
aV\u6d59\u6c5f\u9f0e\u529b
p2567
aV\u83b1\u514b\u7535\u6c14
p2568
aV\u822a\u5929\u5de5\u7a0b
p2569
aV\u7ebd\u5a01\u80a1\u4efd
p2570
aV\u661f\u5149\u519c\u673a
p2571
aV\u4e2d\u96c6\u96c6\u56e2
p2572
aV\u4e2d\u8054\u91cd\u79d1
p2573
aV\u534e\u610f\u538b\u7f29
p2574
aV*ST\u6c88\u673a
p2575
aV\u5f90\u5de5\u673a\u68b0
p2576
aV\u4e2d\u5175\u7ea2\u7bad
p2577
aV\u67f3 \u5de5
p2578
aV\u5927\u51b7\u80a1\u4efd
p2579
aV\u521b\u5143\u79d1\u6280
p2580
aV\u82cf\u5e38\u67f4\uff21
p2581
aV*ST\u5b9d\u5b9e
p2582
aV\u4e2d\u6cb9\u8d44\u672c
p2583
aV\u8944\u9633\u8f74\u627f
p2584
aV\u5c71\u63a8\u80a1\u4efd
p2585
aV\u4e2d\u6838\u79d1\u6280
p2586
aV\u51b0\u8f6e\u73af\u5883
p2587
aV\u667a\u6167\u519c\u4e1a
p2588
aV\u4eac\u5c71\u8f7b\u673a
p2589
aV\u79e6\u5ddd\u673a\u5e8a
p2590
aV\u77f3\u5316\u673a\u68b0
p2591
aV\u5180\u4e1c\u88c5\u5907
p2592
aV\u6f4d\u67f4\u91cd\u673a
p2593
aV\u4e91\u5185\u52a8\u529b
p2594
aV\u6cb3\u5317\u5ba3\u5de5
p2595
aV\u4f17\u5408\u79d1\u6280
p2596
aV\u7cbe\u529f\u79d1\u6280
p2597
aV\u5929\u5947\u80a1\u4efd
p2598
aV\u76fe\u5b89\u73af\u5883
p2599
aV\u5c71\u4e1c\u5a01\u8fbe
p2600
aV\u8f74\u7814\u79d1\u6280
p2601
aV\u4e09\u82b1\u667a\u63a7
p2602
aV\u5c71\u6cb3\u667a\u80fd
p2603
aV\u5e7f\u4e1c\u9e3f\u56fe
p2604
aV\u5929\u9a6c\u80a1\u4efd
p2605
aV\u5229\u6b27\u80a1\u4efd
p2606
aV\u65b0\u5149\u5706\u6210
p2607
aV\u901a\u6da6\u88c5\u5907
p2608
aV\u6c49\u949f\u7cbe\u673a
p2609
aV\u5927\u8fde\u91cd\u5de5
p2610
aV\u8fbe \u610f \u9686
p2611
aV*ST\u4e1c\u6570
p2612
aV\u6d77\u9646\u91cd\u5de5
p2613
aV\u534e\u660e\u88c5\u5907
p2614
aV\u5ddd\u6da6\u80a1\u4efd
p2615
aV\u795e\u5f00\u80a1\u4efd
p2616
aV\u535a\u6df1\u5de5\u5177
p2617
aV\u65b0\u670b\u80a1\u4efd
p2618
aV\u534e\u6da6\u53cc\u9e64
p2619
aV\u4eba\u798f\u533b\u836f
p2620
aV\u91d1\u82b1\u80a1\u4efd
p2621
aV\u540c\u4ec1\u5802
p2622
aV\u592a\u6781\u96c6\u56e2
p2623
aV\u5929\u575b\u751f\u7269
p2624
aV\u590d\u661f\u533b\u836f
p2625
aV\u6c5f\u82cf\u5434\u4e2d
p2626
aV\u751f\u7269\u80a1\u4efd
p2627
aV\u897f\u85cf\u836f\u4e1a
p2628
aV\u6d59\u6c5f\u533b\u836f
p2629
aV\u592a\u9f99\u836f\u4e1a
p2630
aV\u4e2d\u6052\u96c6\u56e2
p2631
aV\u5929\u65b9\u836f\u4e1a
p2632
aV\u6d77\u6b63\u836f\u4e1a
p2633
aV\u6052\u745e\u533b\u836f
p2634
aV\u7f9a\u9510\u5236\u836f
p2635
aV\u4e2d\u65b0\u836f\u4e1a
p2636
aV\u767d\u4e91\u5c71
p2637
aV\u4e9a\u5b9d\u836f\u4e1a
p2638
aV\u5065\u5eb7\u5143
p2639
aV\u73b0\u4ee3\u5236\u836f
p2640
aV\u6606\u836f\u96c6\u56e2
p2641
aV\u7247\u4ed4\u7640
p2642
aV\u84dd\u5149\u53d1\u5c55
p2643
aV\u5343\u91d1\u836f\u4e1a
p2644
aV\u5929\u836f\u80a1\u4efd
p2645
aV\u8054\u73af\u836f\u4e1a
p2646
aV\u5eb7\u7f8e\u836f\u4e1a
p2647
aV\u534e\u6d77\u836f\u4e1a
p2648
aV\u4ea4\u5927\u6602\u7acb
p2649
aV\u5929\u58eb\u529b
p2650
aV\u5eb7\u7f18\u836f\u4e1a
p2651
aV\u6d4e\u5ddd\u836f\u4e1a
p2652
aV\u5eb7\u6069\u8d1d
p2653
aV\u76ca\u4f70\u5236\u836f
p2654
aV\u795e\u5947\u5236\u836f
p2655
aV\u4e2d\u6e90\u534f\u548c
p2656
aV\u54c8\u836f\u80a1\u4efd
p2657
aV\u5965\u745e\u5fb7
p2658
aV\u5929\u76ee\u836f\u4e1a
p2659
aV\u6c5f\u4e2d\u836f\u4e1a
p2660
aV\u5e7f\u8a89\u8fdc
p2661
aV\u8f85\u4ec1\u836f\u4e1a
p2662
aV\u9c81\u6297\u533b\u836f
p2663
aV\u534e\u5317\u5236\u836f
p2664
aV\u4eba\u6c11\u540c\u6cf0
p2665
aV\u901a\u5316\u4e1c\u5b9d
p2666
aV\u5065\u6c11\u96c6\u56e2
p2667
aV\u9a6c\u5e94\u9f99
p2668
aV\u838e\u666e\u7231\u601d
p2669
aV\u6d4e\u6c11\u5236\u836f
p2670
aV\u4e5d\u6d32\u836f\u4e1a
p2671
aV\u73cd\u5b9d\u5c9b
p2672
aV\u65b9\u76db\u5236\u836f
p2673
aV\u56fd\u519c\u79d1\u6280
p2674
aV\u6d77\u738b\u751f\u7269
p2675
aV\u4e30\u539f\u836f\u4e1a
p2676
aVST\u751f\u5316
p2677
aV\u4e1c\u963f\u963f\u80f6
p2678
aV\u4e3d\u73e0\u96c6\u56e2
p2679
aV\u56db\u73af\u751f\u7269
p2680
aV\u767d\u4e91\u5c71A
p2681
aV\u4e91\u5357\u767d\u836f
p2682
aV\u6d77\u5357\u6d77\u836f
p2683
aV\u542f\u8fea\u53e4\u6c49
p2684
aV\u4e1c\u5317\u5236\u836f
p2685
aV\u795e\u5dde\u6613\u6865
p2686
aV\u5409\u6797\u6556\u4e1c
p2687
aV\u4ec1\u548c\u836f\u4e1a
p2688
aV\u957f\u6625\u9ad8\u65b0
p2689
aV\u666e\u6d1b\u836f\u4e1a
p2690
aV\u65b0\u534e\u5236\u836f
p2691
aV\u901a\u5316\u91d1\u9a6c
p2692
aV\u5317\u5927\u533b\u836f
p2693
aV\u6cf0\u5408\u5065\u5eb7
p2694
aV\u666f\u5cf0\u533b\u836f
p2695
aV\u5c71\u5927\u534e\u7279
p2696
aV\u91d1\u9675\u836f\u4e1a
p2697
aV\u5e7f\u6d4e\u836f\u4e1a
p2698
aV\u534e\u4e1c\u533b\u836f
p2699
aV\u4e5d \u829d \u5802
p2700
aV\u534e\u6da6\u4e09\u4e5d
p2701
aV\u65b0 \u548c \u6210
p2702
aV\u534e\u5170\u751f\u7269
p2703
aV\u4ebf\u5e06\u533b\u836f
p2704
aV\u4eac\u65b0\u836f\u4e1a
p2705
aV\u79d1\u534e\u751f\u7269
p2706
aV\u8fbe\u5b89\u57fa\u56e0
p2707
aV\u53cc\u9e6d\u836f\u4e1a
p2708
aV\u6d77\u7fd4\u836f\u4e1a
p2709
aV\u6c83\u534e\u533b\u836f
p2710
aV\u7d2b\u946b\u836f\u4e1a
p2711
aV\u83b1\u8335\u751f\u7269
p2712
aV\u5609\u5e94\u5236\u836f
p2713
aV\u6052\u5eb7\u533b\u7597
p2714
aV\u4e0a\u6d77\u83b1\u58eb
p2715
aV\u6069\u534e\u836f\u4e1a
p2716
aV\u6842\u6797\u4e09\u91d1
p2717
aV\u5947\u6b63\u85cf\u836f
p2718
aV\u9f50\u9c81\u77f3\u5316
p2719
aV\u4e2d\u56fd\u77f3\u5316
p2720
aV\u6d77\u8d8a\u80a1\u4efd
p2721
aV\u6d77\u6cb9\u5de5\u7a0b
p2722
aV\u4e0a\u6d77\u77f3\u5316
p2723
aV\u6d32\u9645\u6cb9\u6c14
p2724
aV\u77f3\u5316\u6cb9\u670d
p2725
aV\u4e2d\u6d77\u6cb9\u670d
p2726
aV\u4e2d\u56fd\u77f3\u6cb9
p2727
aV\u9f99\u5b87\u71c3\u6cb9
p2728
aV\u534e\u9526\u80a1\u4efd
p2729
aV\u5e7f\u805a\u80fd\u6e90
p2730
aV\u56fd\u9645\u5b9e\u4e1a
p2731
aV\u6cf0\u5c71\u77f3\u6cb9
p2732
aV\u8302\u5316\u5b9e\u534e
p2733
aV\u5cb3\u9633\u5174\u957f
p2734
aV*ST\u51c6\u6cb9
p2735
aV\u4e1c\u534e\u80fd\u6e90
p2736
aV\u60e0\u535a\u666e
p2737
aV\u4ec1\u667a\u80a1\u4efd
p2738
aV\u6d77\u9ed8\u79d1\u6280
p2739
aV\u6052\u6cf0\u827e\u666e
p2740
aV\u901a\u6e90\u77f3\u6cb9
p2741
aV\u6f5c\u80fd\u6052\u4fe1
p2742
aV\u4e2d\u56fd\u5de8\u77f3
p2743
aV\u5149\u7535\u80a1\u4efd
p2744
aV\u4e09\u5ce1\u65b0\u6750
p2745
aV\u5c71\u4e1c\u836f\u73bb
p2746
aV\u51ef\u76db\u79d1\u6280
p2747
aV\u91d1\u6676\u79d1\u6280
p2748
aV\u534e\u5efa\u96c6\u56e2
p2749
aV\u8000\u76ae\u73bb\u7483
p2750
aV\u6d1b\u9633\u73bb\u7483
p2751
aV\u65d7\u6ee8\u96c6\u56e2
p2752
aV\u5c71\u4e1c\u534e\u9e4f
p2753
aV\u518d\u5347\u79d1\u6280
p2754
aV\u5357 \u73bb\uff21
p2755
aV*ST\u5fb7\u529b
p2756
aV\u4e9a\u739b\u987f
p2757
aV\u91d1\u521a\u73bb\u7483
p2758
aV\u79c0\u5f3a\u80a1\u4efd
p2759
aV\u957f\u6d77\u80a1\u4efd
p2760
aV\u83f2\u5229\u534e
p2761
aV\u5b81\u6ce2\u97f5\u5347
p2762
aV\u98de\u4e50\u97f3\u54cd
p2763
aV\u4e0a\u6d77\u4e34\u6e2f
p2764
aV\u6797\u6d0b\u80fd\u6e90
p2765
aV\u4e09\u661f\u533b\u7597
p2766
aV\u5ddd\u4eea\u80a1\u4efd
p2767
aV\u667a\u5ea6\u80a1\u4efd
p2768
aV\u4f17\u6cf0\u6c7d\u8f66
p2769
aV\u534e\u5de5\u79d1\u6280
p2770
aV\u5927\u65cf\u6fc0\u5149
p2771
aV\u5a01 \u5c14 \u6cf0
p2772
aV\u79d1\u9646\u7535\u5b50
p2773
aV\u4e1c\u65b9\u7f51\u7edc
p2774
aV\u8bc1\u901a\u7535\u5b50
p2775
aV\u5927\u7acb\u79d1\u6280
p2776
aV\u5927\u534e\u80a1\u4efd
p2777
aV\u5965\u666e\u5149\u7535
p2778
aV\u8d6b\u7f8e\u96c6\u56e2
p2779
aV\u9ad8\u5fb7\u7ea2\u5916
p2780
aV\u6d77\u5eb7\u5a01\u89c6
p2781
aV\u79d1\u58eb\u8fbe
p2782
aV\u65b0\u65f6\u8fbe
p2783
aV\u96ea\u8fea\u9f99
p2784
aV\u6c49\u5a01\u79d1\u6280
p2785
aV\u534e\u6d4b\u68c0\u6d4b
p2786
aV\u4e09\u5ddd\u667a\u6167
p2787
aV\u667a\u4e91\u80a1\u4efd
p2788
aV\u7cbe\u51c6\u4fe1\u606f
p2789
aV\u9f99\u6e90\u6280\u672f
p2790
aV\u4e07\u8baf\u81ea\u63a7
p2791
aV\u6c47\u5ddd\u6280\u672f
p2792
aV\u5148\u6cb3\u73af\u4fdd
p2793
aV\u5929\u745e\u4eea\u5668
p2794
aV\u805a\u5149\u79d1\u6280
p2795
aV\u65b0\u5929\u79d1\u6280
p2796
aV\u5b89\u79d1\u745e
p2797
aV\u8fdc\u65b9\u4fe1\u606f
p2798
aV\u5f00\u5143\u80a1\u4efd
p2799
aV\u91d1\u5361\u667a\u80fd
p2800
aV\u4e1c\u534e\u6d4b\u8bd5
p2801
aV\u70ac\u534e\u79d1\u6280
p2802
aV\u5b89\u63a7\u79d1\u6280
p2803
aV\u6c47\u4e2d\u80a1\u4efd
p2804
aV\u6b63\u4e1a\u79d1\u6280
p2805
aV\u82cf\u8bd5\u8bd5\u9a8c
p2806
aV\u5357\u534e\u4eea\u5668
p2807
aV\u8bda\u76ca\u901a
p2808
aV\u5eb7\u65af\u7279
p2809
aV\u767d\u4e91\u673a\u573a
p2810
aV\u4e0a\u6d77\u673a\u573a
p2811
aV\u65e5\u7167\u6e2f
p2812
aV\u4e0a\u6e2f\u96c6\u56e2
p2813
aV\u4e2d\u8fdc\u6d77\u80fd
p2814
aV\u5357\u65b9\u822a\u7a7a
p2815
aV\u8c61\u5c7f\u80a1\u4efd
p2816
aV\u9000\u5e02\u957f\u6cb9
p2817
aV\u4e1c\u65b9\u822a\u7a7a
p2818
aV\u957f\u6c5f\u6295\u8d44
p2819
aV\u94c1\u9f99\u7269\u6d41
p2820
aV\u745e\u8302\u901a
p2821
aV\u9526\u5dde\u6e2f
p2822
aV\u6d77\u822a\u63a7\u80a1
p2823
aV\u4e2d\u660c\u6570\u636e
p2824
aV\u5916\u8fd0\u53d1\u5c55
p2825
aV\u91cd\u5e86\u6e2f\u4e5d
p2826
aV\u8425\u53e3\u6e2f
p2827
aV\u5317\u5df4\u4f20\u5a92
p2828
aV\u4e2d\u8fdc\u6d77\u7279
p2829
aV\u664b\u897f\u8f66\u8f74
p2830
aV\u6c5f\u897f\u957f\u8fd0
p2831
aV\u7696\u6c5f\u7269\u6d41
p2832
aV\u5927\u4f17\u4ea4\u901a
p2833
aV\u9526\u6c5f\u6295\u8d44
p2834
aV\u5f3a\u751f\u63a7\u80a1
p2835
aV\u4e9a\u901a\u80a1\u4efd
p2836
aV\u5149\u660e\u5730\u4ea7
p2837
aV\u5929\u6d25\u6e2f
p2838
aV\u5929\u6d77\u6295\u8d44
p2839
aV\u4e2d\u50a8\u80a1\u4efd
p2840
aV\u4fdd\u7a0e\u79d1\u6280
p2841
aV\u5b81\u6ce2\u6d77\u8fd0
p2842
aV\u7533\u901a\u5730\u94c1
p2843
aV\u4e0a\u6d77\u673a\u7535
p2844
aV\u5e7f\u65e5\u80a1\u4efd
p2845
aV\u89c8\u6d77\u6295\u8d44
p2846
aV\u53a6\u95e8\u7a7a\u6e2f
p2847
aV\u5185\u8499\u4e00\u673a
p2848
aV\u5510\u5c71\u6e2f
p2849
aV\u5927\u79e6\u94c1\u8def
p2850
aV\u8fde\u4e91\u6e2f
p2851
aV\u5b81\u6ce2\u6e2f
p2852
aV\u6625\u79cb\u822a\u7a7a
p2853
aV\u4e2d\u56fd\u56fd\u822a
p2854
aV\u4e2d\u56fd\u5317\u8f66
p2855
aV\u6c5f\u5357\u5609\u6377
p2856
aV\u5e7f\u6df1\u94c1\u8def
p2857
aV\u4e2d\u56fd\u4e2d\u8f66
p2858
aV\u4e2d\u8fdc\u6d77\u53d1
p2859
aV\u62db\u5546\u8f6e\u8239
p2860
aV\u5927\u8fde\u6e2f
p2861
aV\u4e2d\u8fdc\u6d77\u63a7
p2862
aV\u5eb7\u5c3c\u673a\u7535
p2863
aV\u534e\u8d38\u7269\u6d41
p2864
aV\u6e24\u6d77\u8f6e\u6e21
p2865
aV\u8bfa\u529b\u80a1\u4efd
p2866
aV\u6df1\u8d64\u6e7e\uff21
p2867
aV\u76d0 \u7530 \u6e2f
p2868
aV\u6df1\u5733\u673a\u573a
p2869
aV\u4e2d\u4fe1\u6d77\u76f4
p2870
aV\u5357\u4eac\u516c\u7528
p2871
aV\u73e0\u6d77\u6e2f
p2872
aV\u957f\u822a\u51e4\u51f0
p2873
aV\u5317\u90e8\u6e7e\u6e2f
p2874
aV\u56fd\u6052\u9000
p2875
aV\u53a6\u95e8\u6e2f\u52a1
p2876
aV\u5357\u65b9\u6c47\u901a
p2877
aV\u4e2d\u56fd\u4e2d\u671f
p2878
aV\u5357 \u4eac \u6e2f
p2879
aV\u6021 \u4e9a \u901a
p2880
aV\u98de\u9a6c\u56fd\u9645
p2881
aV\u6fb3\u6d0b\u987a\u660c
p2882
aV\u6d77\u5ce1\u80a1\u4efd
p2883
aV\u5bcc\u4e34\u8fd0\u4e1a
p2884
aV\u5eb7\u529b\u7535\u68af
p2885
aV\u4e2d\u539f\u5185\u914d
p2886
aV\u6052\u57fa\u8fbe\u946b
p2887
aV\u516b\u83f1\u79d1\u6280
p2888
aV\u5b9c\u660c\u4ea4\u8fd0
p2889
aV\u9f99\u6d32\u80a1\u4efd
p2890
aV\u8fdc\u5927\u667a\u80fd
p2891
aV\u6b27\u6d66\u667a\u7f51
p2892
aV\u9f0e\u6c49\u6280\u672f
p2893
aV\u65b0\u5b81\u7269\u6d41
p2894
aV\u98de\u529b\u8fbe
p2895
aV\u534e\u9e4f\u98de
p2896
aV\u4e2d\u76f4\u80a1\u4efd
p2897
aV\u4e2d\u56fd\u536b\u661f
p2898
aV\u6d2a\u90fd\u822a\u7a7a
p2899
aV\u822a\u5929\u52a8\u529b
p2900
aV\u4e2d\u822a\u7535\u5b50
p2901
aV\u822a\u53d1\u79d1\u6280
p2902
aV\u822a\u5929\u7535\u5b50
p2903
aV\u822a\u53d1\u52a8\u529b
p2904
aV\u822a\u53d1\u63a7\u5236
p2905
aV\u4e2d\u822a\u98de\u673a
p2906
aV\u822a\u5929\u79d1\u6280
p2907
aV\u6d77\u7279\u9ad8\u65b0
p2908
aV\u5a01\u6d77\u5e7f\u6cf0
p2909
aV\u822a\u65b0\u79d1\u6280
p2910
aV\u5f00\u521b\u56fd\u9645
p2911
aV\u4e9a\u76db\u96c6\u56e2
p2912
aV\u91d1\u5065\u7c73\u4e1a
p2913
aV\u5409\u6797\u68ee\u5de5
p2914
aV\u4e2d\u7267\u80a1\u4efd
p2915
aV\u51a0\u519c\u80a1\u4efd
p2916
aV\u5927\u6e56\u80a1\u4efd
p2917
aVST\u666f\u8c37
p2918
aV*ST\u660c\u9c7c
p2919
aV\u519c\u53d1\u79cd\u4e1a
p2920
aV\u6566\u714c\u79cd\u4e1a
p2921
aV\u65b0\u519c\u5f00\u53d1
p2922
aV\u4e07\u5411\u5fb7\u519c
p2923
aV\u901a\u5a01\u80a1\u4efd
p2924
aV\u597d\u5f53\u5bb6
p2925
aV\u9999\u68a8\u80a1\u4efd
p2926
aV*ST\u65b0\u8d5b
p2927
aV\u5317\u5927\u8352
p2928
aV\u798f\u6210\u80a1\u4efd
p2929
aV\u65b0\u4e94\u4e30
p2930
aV\u4e30\u6797\u96c6\u56e2
p2931
aV\u79be\u4e30\u7267\u4e1a
p2932
aV\u5eb7\u8fbe\u5c14
p2933
aV\u519c \u4ea7 \u54c1
p2934
aV\u5e73\u6f6d\u53d1\u5c55
p2935
aV\u6c38\u5b89\u6797\u4e1a
p2936
aV\u6b63\u8679\u79d1\u6280
p2937
aV\u4e30\u4e50\u79cd\u4e1a
p2938
aV\u7f57 \u725b \u5c71
p2939
aV\u4e2d\u6c34\u6e14\u4e1a
p2940
aV\u65b0 \u5e0c \u671b
p2941
aV\u9686\u5e73\u9ad8\u79d1
p2942
aV\u767b\u6d77\u79cd\u4e1a
p2943
aV\u7350\u5b50\u5c9b
p2944
aV\u4e1c\u65b9\u6d77\u6d0b
p2945
aV\u5929\u5eb7\u751f\u7269
p2946
aV\u5929\u90a6\u80a1\u4efd
p2947
aV\u6b63\u90a6\u79d1\u6280
p2948
aV\u521b\u65b0\u533b\u7597
p2949
aV\u6c11\u548c\u80a1\u4efd
p2950
aV\u5723\u519c\u53d1\u5c55
p2951
aV\u6d77\u5927\u96c6\u56e2
p2952
aV\u534e\u82f1\u519c\u4e1a
p2953
aV\u5927\u5317\u519c
p2954
aV\u58f9\u6865\u80a1\u4efd
p2955
aV\u76ca\u751f\u80a1\u4efd
p2956
aV\u96cf\u9e70\u519c\u7267
p2957
aV\u5927\u5eb7\u519c\u4e1a
p2958
aV\u91d1\u65b0\u519c
p2959
aV\u5510\u4eba\u795e
p2960
aV\u798f\u5efa\u91d1\u68ee
p2961
aV\u767e\u6d0b\u80a1\u4efd
p2962
aV\u7267\u539f\u80a1\u4efd
p2963
aV\u4ed9\u575b\u80a1\u4efd
p2964
aV\u5927\u79b9\u8282\u6c34
p2965
aV\u8343\u94f6\u9ad8\u79d1
p2966
aV\u56fd\u8054\u6c34\u4ea7
p2967
aV\u897f\u90e8\u7267\u4e1a
p2968
aV\u661f\u666e\u533b\u79d1
p2969
aV\u5927\u534e\u519c
p2970
aV\u795e\u519c\u57fa\u56e0
p2971
aV\u4f73\u6c83\u80a1\u4efd
p2972
aV\u5929\u5c71\u751f\u7269
p2973
aV\u6ea2\u591a\u5229
p2974
aV\u56db\u5ddd\u8def\u6865
p2975
aV\u845b\u6d32\u575d
p2976
aV\u4e0a\u6d77\u5efa\u5de5
p2977
aV\u5ef6\u957f\u5316\u5efa
p2978
aV\u8def\u6865\u5efa\u8bbe
p2979
aV\u6d66\u4e1c\u5efa\u8bbe
p2980
aV\u6b63\u6e90\u80a1\u4efd
p2981
aV\u897f\u85cf\u5929\u8def
p2982
aV\u9f99\u5143\u5efa\u8bbe
p2983
aV\u5b89\u5fbd\u6c34\u5229
p2984
aV\u817e\u8fbe\u5efa\u8bbe
p2985
aV\u4e2d\u94c1\u5de5\u4e1a
p2986
aV\u5353\u90ce\u667a\u80fd
p2987
aV\u5bcc\u63a7\u4e92\u52a8
p2988
aV\u767e\u5ddd\u80fd\u6e90
p2989
aV\u96a7\u9053\u80a1\u4efd
p2990
aV\u9f99\u5efa\u80a1\u4efd
p2991
aV\u4e2d\u6750\u56fd\u9645
p2992
aV\u79d1\u8fbe\u80a1\u4efd
p2993
aV\u4e2d\u56fd\u5316\u5b66
p2994
aV\u4e2d\u56fd\u94c1\u5efa
p2995
aV\u4e2d\u56fd\u4e2d\u94c1
p2996
aV\u4e2d\u56fd\u4e2d\u51b6
p2997
aV\u4e2d\u56fd\u5efa\u7b51
p2998
aV\u4e2d\u56fd\u7535\u5efa
p2999
aV\u5b81\u6ce2\u5efa\u5de5
p3000
aV\u4e2d\u56fd\u4ea4\u5efa
p3001
aV\u6c5f\u6cb3\u96c6\u56e2
p3002
aV\u4e2d\u8861\u8bbe\u8ba1
p3003
aV\u4e2d\u8bbe\u96c6\u56e2
p3004
aV\u5168\u7b51\u80a1\u4efd
p3005
aV\u67ef\u5229\u8fbe
p3006
aV\u94f6\u9f99\u80a1\u4efd
p3007
aV\u7f8e\u4e3d\u751f\u6001
p3008
aV\u6df1\u5929\u5730\uff21
p3009
aV\u65b9\u5927\u96c6\u56e2
p3010
aV\u5317\u65b9\u56fd\u9645
p3011
aV\u5929\u5065\u96c6\u56e2
p3012
aV\u5c71\u4e1c\u8def\u6865
p3013
aV\u534e\u5851\u63a7\u80a1
p3014
aV\u6d77\u87ba\u578b\u6750
p3015
aV\u5317\u65b0\u5efa\u6750
p3016
aV\u4e2d\u94a2\u56fd\u9645
p3017
aV\u4e2d\u5357\u5efa\u8bbe
p3018
aV\u5154 \u5b9d \u5b9d
p3019
aV\u5b9d\u9e70\u80a1\u4efd
p3020
aV\u4e2d\u5de5\u56fd\u9645
p3021
aV\u7ca4 \u6c34 \u7535
p3022
aV\u5b8f\u6da6\u5efa\u8bbe
p3023
aV\u745e\u6cf0\u79d1\u6280
p3024
aV\u91d1 \u87b3 \u8782
p3025
aV\u4e2d\u56fd\u6d77\u8bda
p3026
aV\u4e1c\u5357\u7f51\u67b6
p3027
aV\u4e1c\u534e\u79d1\u6280
p3028
aV\u4e2d\u822a\u4e09\u946b
p3029
aV\u5ef6\u534e\u667a\u80fd
p3030
aV\u56fd\u7edf\u80a1\u4efd
p3031
aV\u6fee\u8010\u80a1\u4efd
p3032
aV\u5e1d\u9f99\u6587\u5316
p3033
aV\u4e1c\u65b9\u96e8\u8679
p3034
aV\u5317\u65b0\u8def\u6865
p3035
aV\u4e1c\u65b9\u56ed\u6797
p3036
aV\u5357\u5c71\u63a7\u80a1
p3037
aV\u6d2a\u6d9b\u80a1\u4efd
p3038
aV\u4f1f\u661f\u65b0\u6750
p3039
aV\u4e9a\u53a6\u80a1\u4efd
p3040
aV\u5317\u4eac\u5229\u5c14
p3041
aV\u5efa\u7814\u96c6\u56e2
p3042
aV\u68d5\u6988\u80a1\u4efd
p3043
aV\u7533\u901a\u5feb\u9012
p3044
aV\u4e09\u7ef4\u5de5\u7a0b
p3045
aV\u5e7f\u7530\u96c6\u56e2
p3046
aV\u4e2d\u5316\u5ca9\u571f
p3047
aV\u56f4\u6d77\u80a1\u4efd
p3048
aV\u6d77\u5357\u745e\u6cfd
p3049
aV\u745e\u548c\u80a1\u4efd
p3050
aV\u6210\u90fd\u8def\u6865
p3051
aV\u626c\u5b50\u65b0\u6750
p3052
aV\u4e2d\u6cf0\u6865\u6881
p3053
aV\u666e\u90a6\u80a1\u4efd
p3054
aV\u9f99\u6cc9\u80a1\u4efd
p3055
aV\u4e1c\u6613\u65e5\u76db
p3056
aV\u5cad\u5357\u56ed\u6797
p3057
aV\u4e2d\u77ff\u8d44\u6e90
p3058
aV\u4e09\u5723\u80a1\u4efd
p3059
aV\u6613\u6210\u65b0\u80fd
p3060
aV\u5609\u5bd3\u80a1\u4efd
p3061
aV\u5148\u950b\u65b0\u6750
p3062
aV\u82cf\u4ea4\u79d1
p3063
aV\u592a\u7a7a\u677f\u4e1a
p3064
aV\u6052\u901a\u79d1\u6280
p3065
aV\u91d1\u53d1\u79d1\u6280
p3066
aV\u5546\u8d62\u73af\u7403
p3067
aV\u56fd\u673a\u901a\u7528
p3068
aV\u65f6\u4ee3\u65b0\u6750
p3069
aV\u5e7f\u4e1c\u6995\u6cf0
p3070
aV\u798f\u65af\u7279
p3071
aV\u80dc\u5229\u80a1\u4efd
p3072
aV\u56fd\u98ce\u5851\u4e1a
p3073
aV\u4f5b\u5851\u79d1\u6280
p3074
aV\u9e3f\u8fbe\u5174\u4e1a
p3075
aV\u6ca7\u5dde\u660e\u73e0
p3076
aV\u901a\u4ea7\u4e3d\u661f
p3077
aV\u5927 \u4e1c \u5357
p3078
aV\u666e\u5229\u7279
p3079
aV\u6148\u6587\u4f20\u5a92
p3080
aV\u6bc5\u660c\u80a1\u4efd
p3081
aV\u9752\u9f99\u7ba1\u4e1a
p3082
aV\u4f17\u5e94\u4e92\u8054
p3083
aV\u6d59\u6c5f\u4f17\u6210
p3084
aV\u53cc\u661f\u65b0\u6750
p3085
aV\u6c38\u9ad8\u80a1\u4efd
p3086
aV\u987a\u5a01\u80a1\u4efd
p3087
aV\u987e\u5730\u79d1\u6280
p3088
aV\u738b\u5b50\u65b0\u6750
p3089
aV\u5929\u665f\u65b0\u6750
p3090
aV\u7eb3\u5ddd\u80a1\u4efd
p3091
aV\u5b89\u5229\u80a1\u4efd
p3092
aV\u94f6\u79a7\u79d1\u6280
p3093
aV\u6c38\u5229\u80a1\u4efd
p3094
aV\u88d5\u5174\u80a1\u4efd
p3095
aV\u540c\u5927\u80a1\u4efd
p3096
aV\u5fb7\u5a01\u65b0\u6750
p3097
aV\u4e2d\u6765\u80a1\u4efd
p3098
aV\u4e2d\u56fd\u533b\u836f
p3099
aV\u5b8f\u56fe\u9ad8\u79d1
p3100
aV\u5f53\u4ee3\u660e\u8bda
p3101
aV\u4e2d\u592e\u5546\u573a
p3102
aV\u5546\u4e1a\u57ce
p3103
aV\u5927\u4e1c\u65b9
p3104
aV\u534e\u8054\u7efc\u8d85
p3105
aV\u5c0f\u5546\u54c1\u57ce
p3106
aV\u56fd\u836f\u80a1\u4efd
p3107
aV\u6d77\u822a\u57fa\u7840
p3108
aV\u65b0\u4e16\u754c
p3109
aV\u767e\u8054\u80a1\u4efd
p3110
aV\u8c6b\u56ed\u80a1\u4efd
p3111
aV\u5357\u4eac\u65b0\u767e
p3112
aV\u4e1c\u767e\u96c6\u56e2
p3113
aV\u5927\u5546\u80a1\u4efd
p3114
aV\u6b27\u4e9a\u96c6\u56e2
p3115
aV\u5357\u5b81\u767e\u8d27
p3116
aV\u5357\u4eac\u533b\u836f
p3117
aV\u9996\u5546\u80a1\u4efd
p3118
aV\u91cd\u5e86\u767e\u8d27
p3119
aV\u5170\u5dde\u6c11\u767e
p3120
aV\u4e1c\u65b9\u94f6\u661f
p3121
aV\u6c49\u5546\u96c6\u56e2
p3122
aV\u53cb\u597d\u96c6\u56e2
p3123
aV\u65b0\u534e\u767e\u8d27
p3124
aV\u8f7b\u7eba\u57ce
p3125
aV\u676d\u5dde\u89e3\u767e
p3126
aV\u6d25\u529d\u4e1a
p3127
aV\u76ca\u6c11\u96c6\u56e2
p3128
aV\u767e\u8054\u80a1\u4efd
p3129
aV\u8302\u4e1a\u5546\u4e1a
p3130
aV\u7b2c\u4e00\u533b\u836f
p3131
aV\u4e0a\u6d77\u4e5d\u767e
p3132
aV\u4e2d\u5929\u80fd\u6e90
p3133
aV\u5b81\u6ce2\u4e2d\u767e
p3134
aV\u94f6\u5ea7\u80a1\u4efd
p3135
aV\u738b\u5e9c\u4e95
p3136
aV\u5317\u4eac\u57ce\u4e61
p3137
aV\u767e\u5927\u96c6\u56e2
p3138
aV\u79cb\u6797\u96c6\u56e2
p3139
aV\u56fd\u7f8e\u901a\u8baf
p3140
aV\u4e5d\u5dde\u901a
p3141
aV\u6587\u5cf0\u80a1\u4efd
p3142
aV\u4e09\u6c5f\u8d2d\u7269
p3143
aV\u4e0a\u6d77\u533b\u836f
p3144
aV\u6c38\u8f89\u8d85\u5e02
p3145
aV\u7fe0\u5fae\u80a1\u4efd
p3146
aV\u67f3\u5dde\u533b\u836f
p3147
aV\u8001\u767e\u59d3
p3148
aV\u76ca\u4e30\u836f\u623f
p3149
aV\u98de\u4e9a\u8fbe\uff21
p3150
aV\u56fd\u836f\u4e00\u81f4
p3151
aV\u6df1\u5733\u534e\u5f3a
p3152
aV\u85cf\u683c\u63a7\u80a1
p3153
aV\u82f1\u7279\u96c6\u56e2
p3154
aV\u6c11\u751f\u63a7\u80a1
p3155
aV\u5408\u80a5\u767e\u8d27
p3156
aV\u901a\u7a0b\u63a7\u80a1
p3157
aV\u9102\u6b66\u5546\uff21
p3158
aV\u56fd\u9645\u533b\u5b66
p3159
aV\u6606\u767e\u5927\uff21
p3160
aV\u4f9b\u9500\u5927\u96c6
p3161
aV\u91d1\u6d32\u6148\u822a
p3162
aV\u592a\u9633\u80fd
p3163
aV\u4e07\u65b9\u53d1\u5c55
p3164
aV\u5927\u8fde\u53cb\u8c0a
p3165
aV\u6d59\u6c5f\u9707\u5143
p3166
aV\u4e2d\u5174\u5546\u4e1a
p3167
aV\u4e2d\u767e\u96c6\u56e2
p3168
aV\u6b66\u6c49\u4e2d\u5546
p3169
aV\u5929\u97f3\u63a7\u80a1
p3170
aV\u534e\u8054\u80a1\u4efd
p3171
aV\u8302\u4e1a\u901a\u4fe1
p3172
aV\u6d59\u5546\u4e2d\u62d3
p3173
aV\u8d8a\u79c0\u91d1\u63a7
p3174
aV\u82cf\u5b81\u4e91\u5546
p3175
aV\u5e7f\u767e\u80a1\u4efd
p3176
aV\u6b65 \u6b65 \u9ad8
p3177
aV\u65b0 \u534e \u90fd
p3178
aV\u53cb\u963f\u80a1\u4efd
p3179
aV\u4eba\u4eba\u4e50
p3180
aV\u6d77\u5b81\u76ae\u57ce
p3181
aV\u7231\u65bd\u5fb7
p3182
aV\u5929\u8679\u80a1\u4efd
p3183
aV\u4f17\u4e1a\u8fbe
p3184
aV\u5609\u4e8b\u5802
p3185
aV\u8f89\u9686\u80a1\u4efd
p3186
aV\u5f90\u5bb6\u6c47
p3187
aV\u745e\u5eb7\u533b\u836f
p3188
aV\u7ea2\u65d7\u8fde\u9501
p3189
aV\u5409\u5cf0\u519c\u673a
p3190
aV\u5feb\u4e50\u8d2d
p3191
aV\u6d59\u6c5f\u5bcc\u6da6
p3192
aV\u7ef4\u79d1\u7cbe\u534e
p3193
aV\u534e\u5347\u80a1\u4efd
p3194
aV\u6c5f\u82cf\u9633\u5149
p3195
aV\u91d1\u9e70\u80a1\u4efd
p3196
aV\u4e09\u623f\u5df7
p3197
aV\u534e\u7eba\u80a1\u4efd
p3198
aV\u51e4\u7af9\u7eba\u7ec7
p3199
aV\u7533\u8fbe\u80a1\u4efd
p3200
aV\u9f99\u5934\u80a1\u4efd
p3201
aV\u4e0a\u6d77\u4e09\u6bdb
p3202
aV\u65b0\u534e\u9526
p3203
aV\u6d77\u6b23\u80a1\u4efd
p3204
aV\u822a\u6c11\u80a1\u4efd
p3205
aV\u767e\u9686\u4e1c\u65b9
p3206
aV\u9e7f\u6e2f\u6587\u5316
p3207
aV\u5065\u76db\u96c6\u56e2
p3208
aV\u65b0\u6fb3\u80a1\u4efd
p3209
aV\u795e\u5dde\u957f\u57ce
p3210
aV\u6df1\u7eba\u7ec7\uff21
p3211
aV\u5e38\u5c71\u5317\u660e
p3212
aV\u5929\u9996\u53d1\u5c55
p3213
aV\u9c81 \u6cf0\uff21
p3214
aV\u4e09\u6bdb\u6d3e\u795e
p3215
aV*ST\u91d1\u5b87
p3216
aV\u5fb7\u5c55\u5065\u5eb7
p3217
aV\u534e\u8302\u80a1\u4efd
p3218
aV\u6b23\u9f99\u63a7\u80a1
p3219
aV\u9ad8\u5347\u63a7\u80a1
p3220
aV*ST \u4e2d\u7ed2
p3221
aV\u7f8e \u6b23 \u8fbe
p3222
aV\u534e\u5b5a\u65f6\u5c1a
p3223
aV*ST\u4f17\u548c
p3224
aV\u51ef\u745e\u5fb7
p3225
aV\u5b5a\u65e5\u80a1\u4efd
p3226
aV\u65b0\u91ce\u7eba\u7ec7
p3227
aV\u5357\u6781\u7535\u5546
p3228
aV\u5b8f\u8fbe\u9ad8\u79d1
p3229
aV\u5982\u610f\u96c6\u56e2
p3230
aV\u8054\u53d1\u80a1\u4efd
p3231
aV\u5609\u6b23\u4e1d\u7ef8
p3232
aV\u65f7\u8fbe\u79d1\u6280
p3233
aV\u4e07\u4e1c\u533b\u7597
p3234
aV\u5e7f\u6c47\u6c7d\u8f66
p3235
aV\u65b0\u534e\u533b\u7597
p3236
aV\u901a\u7b56\u533b\u7597
p3237
aV\u7ef4\u529b\u533b\u7597
p3238
aV\u5b9c\u534e\u5065\u5eb7
p3239
aV\u9c7c\u8dc3\u533b\u7597
p3240
aV\u84dd\u5e06\u533b\u7597
p3241
aV\u4e5d\u5b89\u533b\u7597
p3242
aV\u5c1a\u8363\u533b\u7597
p3243
aV\u5965\u4f73\u534e
p3244
aV\u4e50\u666e\u533b\u7597
p3245
aV\u7231\u5c14\u773c\u79d1
p3246
aV\u9633\u666e\u533b\u7597
p3247
aV\u5eb7\u65d7\u80a1\u4efd
p3248
aV\u4e1c\u5bcc\u9f99
p3249
aV\u7406\u90a6\u4eea\u5668
p3250
aV\u5343\u5c71\u836f\u673a
p3251
aV\u51a0\u660a\u751f\u7269
p3252
aV\u8fea\u5b89\u8bca\u65ad
p3253
aV\u5b9d\u83b1\u7279
p3254
aV\u4e50\u91d1\u5065\u5eb7
p3255
aV\u548c\u4f73\u80a1\u4efd
p3256
aV\u4e09\u8bfa\u751f\u7269
p3257
aV\u6234\u7ef4\u533b\u7597
p3258
aV\u535a\u6656\u521b\u65b0
p3259
aV\u51ef\u5229\u6cf0
p3260
aV\u6cf0\u683c\u533b\u836f
p3261
aV\u8fea\u745e\u533b\u7597
p3262
aV\u535a\u6d4e\u533b\u836f
p3263
aV\u8fe6\u5357\u79d1\u6280
p3264
aV\u5317\u65b9\u7a00\u571f
p3265
aV\u897f\u90e8\u8d44\u6e90
p3266
aVS\u5c71\u4e1c\u94dd
p3267
aV\u5357\u5c71\u94dd\u4e1a
p3268
aV\u68a6\u821f\u80a1\u4efd
p3269
aV\u5e7f\u665f\u6709\u8272
p3270
aVS\u5170\u94dd
p3271
aV\u8363\u534e\u5b9e\u4e1a
p3272
aV\u5b8f\u8fbe\u80a1\u4efd
p3273
aV\u897f\u85cf\u73e0\u5cf0
p3274
aV\u6c5f\u897f\u94dc\u4e1a
p3275
aV\u4e94\u77ff\u8d44\u672c
p3276
aV*ST\u5409\u6069
p3277
aV\u5b9d\u949b\u80a1\u4efd
p3278
aV\u8d35\u7814\u94c2\u4e1a
p3279
aV\u4e2d\u91d1\u9ec4\u91d1
p3280
aV\u9a70\u5b8f\u950c\u9517
p3281
aV\u8c6b\u5149\u91d1\u94c5
p3282
aV\u5c71\u4e1c\u9ec4\u91d1
p3283
aV\u53a6\u95e8\u94a8\u4e1a
p3284
aV\u4e2d\u5b5a\u5b9e\u4e1a
p3285
aV\u4e1c\u9633\u5149\u79d1
p3286
aV\u76db\u5c6f\u77ff\u4e1a
p3287
aV\u91d1\u745e\u77ff\u4e1a
p3288
aV\u5b81\u6ce2\u5bcc\u90a6
p3289
aV\u65b0\u7586\u4f17\u548c
p3290
aV\u682a\u51b6\u96c6\u56e2
p3291
aV\u535a\u5a01\u5408\u91d1
p3292
aV\u897f\u90e8\u77ff\u4e1a
p3293
aV\u4e2d\u56fd\u94dd\u4e1a
p3294
aV\u660e\u6cf0\u94dd\u4e1a
p3295
aV\u7d2b\u91d1\u77ff\u4e1a
p3296
aV\u91d1\u94bc\u80a1\u4efd
p3297
aV\u4e2d\u91d1\u5cad\u5357
p3298
aV\u5174\u4e1a\u77ff\u4e1a
p3299
aV\u91d1\u6d32\u6148\u822a
p3300
aV\u91d1\u9a6c\u96c6\u56e2
p3301
aV\u76db\u8fbe\u77ff\u4e1a
p3302
aV\u7126\u4f5c\u4e07\u65b9
p3303
aV\u94dc\u9675\u6709\u8272
p3304
aV\u4e2d\u94a8\u9ad8\u65b0
p3305
aV\u70bc\u77f3\u6709\u8272
p3306
aV\u950c\u4e1a\u80a1\u4efd
p3307
aV\u4e2d\u8272\u80a1\u4efd
p3308
aV\u897f\u85cf\u77ff\u4e1a
p3309
aV\u4e91\u94dd\u80a1\u4efd
p3310
aV\u4e94\u77ff\u7a00\u571f
p3311
aV\u4e91\u5357\u94dc\u4e1a
p3312
aV\u9521\u4e1a\u80a1\u4efd
p3313
aV\u4e1c\u65b9\u94bd\u4e1a
p3314
aV\u680b\u6881\u65b0\u6750
p3315
aV\u7f57\u5e73\u950c\u7535
p3316
aV\u897f\u90e8\u6750\u6599
p3317
aV\u6e56\u5357\u9ec4\u91d1
p3318
aV\u5e38\u94dd\u80a1\u4efd
p3319
aV\u4e1c\u65b9\u9506\u4e1a
p3320
aV\u695a\u6c5f\u65b0\u6750
p3321
aV\u4e91\u6d77\u91d1\u5c5e
p3322
aV\u6d77\u4eae\u80a1\u4efd
p3323
aV\u6052\u90a6\u80a1\u4efd
p3324
aV\u7cbe\u827a\u80a1\u4efd
p3325
aV\u7f57\u666e\u65af\u91d1
p3326
aV\u683c\u6797\u7f8e
p3327
aV\u7ae0\u6e90\u94a8\u4e1a
p3328
aV\u5b8f\u521b\u63a7\u80a1
p3329
aV\u4e91\u5357\u9517\u4e1a
p3330
aV\u8d63\u950b\u9502\u4e1a
p3331
aV\u5229\u6e90\u7cbe\u5236
p3332
aV\u4e9a\u592a\u79d1\u6280
p3333
aV\u95fd\u53d1\u94dd\u4e1a
p3334
aV\u9732\u7b11\u79d1\u6280
p3335
aV\u94a2\u7814\u9ad8\u7eb3
p3336
aV\u8054\u7f8e\u63a7\u80a1
p3337
aV\u6b66\u6c49\u63a7\u80a1
p3338
aV\u56fd\u4e2d\u6c34\u52a1
p3339
aV\u94b1\u6c5f\u6c34\u5229
p3340
aV\u701a\u84dd\u73af\u5883
p3341
aV\u957f\u6625\u71c3\u6c14
p3342
aV\u6d2a\u57ce\u6c34\u4e1a
p3343
aV\u56fd\u65b0\u80fd\u6e90
p3344
aV\u5927\u4f17\u516c\u7528
p3345
aV\u57ce\u6295\u63a7\u80a1
p3346
aV\u5927\u8fde\u70ed\u7535
p3347
aV\u7ea2\u9633\u80fd\u6e90
p3348
aV\u91cd\u5e86\u71c3\u6c14
p3349
aV\u5b81\u6ce2\u70ed\u7535
p3350
aV\u6df1\u5733\u71c3\u6c14
p3351
aV\u91cd\u5e86\u6c34\u52a1
p3352
aV\u6c5f\u5357\u6c34\u52a1
p3353
aV\u5927\u901a\u71c3\u6c14
p3354
aV\u6e24\u6d77\u80a1\u4efd
p3355
aV\u91d1\u9e3f\u63a7\u80a1
p3356
aV\u4e2d\u5c71\u516c\u7528
p3357
aV\u60e0\u5929\u70ed\u7535
p3358
aV\u6ee8\u6d77\u80fd\u6e90
p3359
aV\u9655\u5929\u7136\u6c14
p3360
aV\u65b0\u7586\u6d69\u6e90
p3361
aV\u7279\u53d8\u7535\u5de5
p3362
aV\u957f\u57ce\u7535\u5de5
p3363
aV\u56fd\u7535\u5357\u81ea
p3364
aV\u534e\u4eea\u7535\u6c14
p3365
aV\u5e73\u9ad8\u7535\u6c14
p3366
aV\u6e58\u7535\u80a1\u4efd
p3367
aV\u7f6e\u4fe1\u7535\u6c14
p3368
aV\u957f\u56ed\u96c6\u56e2
p3369
aV\u4fdd\u53d8\u7535\u6c14
p3370
aV\u5367\u9f99\u7535\u6c14
p3371
aV\u6cf0\u8c6a\u79d1\u6280
p3372
aV\u4e1c\u65b9\u7535\u6c14
p3373
aV\u5b9d\u80dc\u80a1\u4efd
p3374
aV\u56db\u65b9\u80a1\u4efd
p3375
aV\u4e2d\u56fd\u897f\u7535
p3376
aV*ST\u9510\u7535
p3377
aV\u98ce\u8303\u80a1\u4efd
p3378
aV\u4e0a\u6d77\u7535\u6c14
p3379
aV\u6b63\u6cf0\u7535\u5668
p3380
aV\u660e\u661f\u7535\u7f06
p3381
aV\u676d\u7535\u80a1\u4efd
p3382
aV\u8bb8\u7ee7\u7535\u6c14
p3383
aV\u4e1c\u5317\u7535\u6c14
p3384
aV\u4e1c\u65b9\u7535\u5b50
p3385
aV\u94f6\u6cb3\u751f\u7269
p3386
aV\u76c8\u5cf0\u73af\u5883
p3387
aV\u601d\u6e90\u7535\u6c14
p3388
aV\u56fd\u8f69\u9ad8\u79d1
p3389
aV\u4e09\u53d8\u79d1\u6280
p3390
aV\u68a6\u7f51\u96c6\u56e2
p3391
aV\u6c83\u5c14\u6838\u6750
p3392
aV\u6df1\u5733\u60e0\u7a0b
p3393
aV\u667a\u5149\u7535\u6c14
p3394
aV\u91d1\u98ce\u79d1\u6280
p3395
aV\u5357\u6d0b\u80a1\u4efd
p3396
aV\u5965 \u7279 \u8fc5
p3397
aV\u4e07\u9a6c\u80a1\u4efd
p3398
aV\u592a\u9633\u7535\u7f06
p3399
aV\u96c5\u767e\u7279
p3400
aV\u5317\u4eac\u79d1\u9510
p3401
aV\u68ee\u6e90\u7535\u6c14
p3402
aV\u6469\u6069\u7535\u6c14
p3403
aV\u4e2d\u8d85\u63a7\u80a1
p3404
aV\u6c49\u7f06\u80a1\u4efd
p3405
aV\u5929\u987a\u98ce\u80fd
p3406
aV\u91d1\u676f\u7535\u5de5
p3407
aV\u901a\u8fbe\u80a1\u4efd
p3408
aV\u878d\u94b0\u96c6\u56e2
p3409
aV\u8302\u7855\u7535\u6e90
p3410
aV\u7279\u9510\u5fb7
p3411
aV\u5357\u98ce\u80a1\u4efd
p3412
aV\u4e2d\u5143\u80a1\u4efd
p3413
aV\u4e5d\u6d32\u7535\u6c14
p3414
aV\u5408\u5eb7\u65b0\u80fd
p3415
aV\u4e2d\u80fd\u7535\u6c14
p3416
aV\u91d1\u5229\u534e\u7535
p3417
aV\u7ecf\u7eac\u7535\u6750
p3418
aV\u6613\u4e16\u8fbe
p3419
aV\u6cf0\u80dc\u98ce\u80fd
p3420
aV\u548c\u987a\u7535\u6c14
p3421
aV\u79d1\u6cf0\u7535\u6e90
p3422
aV\u6052\u987a\u4f17\u6607
p3423
aV\u9ea6\u8fea\u7535\u6c14
p3424
aV\u6b23\u6cf0\u9000
p3425
aV\u53cc\u6770\u7535\u6c14
p3426
aV\u94f6\u9e3d\u6295\u8d44
p3427
aV\u9752\u5c71\u7eb8\u4e1a
p3428
aV\u4e2d\u95fd\u80fd\u6e90
p3429
aV\u6c11\u4e30\u7279\u7eb8
p3430
aV\u534e\u6cf0\u80a1\u4efd
p3431
aV\u6052\u4e30\u7eb8\u4e1a
p3432
aV\u51a0\u8c6a\u9ad8\u65b0
p3433
aV\u4e5d\u6709\u80a1\u4efd
p3434
aV\u5c71\u9e70\u7eb8\u4e1a
p3435
aV\u5b9c\u5bbe\u7eb8\u4e1a
p3436
aV\u5cb3\u9633\u6797\u7eb8
p3437
aV\u535a\u6c47\u7eb8\u4e1a
p3438
aV\u6668\u9e23\u7eb8\u4e1a
p3439
aV\u7f8e\u5229\u4e91
p3440
aV\u795e\u96fe\u8282\u80fd
p3441
aV\u8d35\u7cd6\u80a1\u4efd
p3442
aV\u51ef\u6069\u80a1\u4efd
p3443
aV\u666f\u5174\u7eb8\u4e1a
p3444
aV\u592a\u9633\u7eb8\u4e1a
p3445
aV\u5b89\u59ae\u80a1\u4efd
p3446
aV\u7f8e\u76c8\u68ee
p3447
aV\u4e2d\u987a\u6d01\u67d4
p3448
aV\u9f50\u5cf0\u65b0\u6750
p3449
aV\u987a\u704f\u80a1\u4efd
p3450
aV\u4e2d\u8239\u79d1\u6280
p3451
aV\u4e2d\u56fd\u8239\u8236
p3452
aV\u4e2d\u8239\u9632\u52a1
p3453
aV\u4e9a\u661f\u951a\u94fe
p3454
aV\u4e2d\u56fd\u91cd\u5de5
p3455
aV\u6c5f\u82cf\u56fd\u4fe1
p3456
aV\u5929\u6d77\u9632\u52a1
p3457
aV\u592a\u9633\u9e1f
p3458
aV*ST\u90d1\u7164
p3459
aV\u5170\u82b1\u79d1\u521b
p3460
aV\u6c38\u6cf0\u80fd\u6e90
p3461
aV\u5b89\u901a\u63a7\u80a1
p3462
aV\u5156\u5dde\u7164\u4e1a
p3463
aV\u9633\u6cc9\u7164\u4e1a
p3464
aV\u9752\u6d77\u6625\u5929
p3465
aV\u76d8\u6c5f\u80a1\u4efd
p3466
aV\u5b89\u6e90\u7164\u4e1a
p3467
aV*ST\u5927\u6709
p3468
aV\u5b89\u6cf0\u96c6\u56e2
p3469
aV\u4e0a\u6d77\u80fd\u6e90
p3470
aV\u5c71\u7164\u56fd\u9645
p3471
aV\u6e38\u4e45\u6e38\u620f
p3472
aV\u91d1\u745e\u77ff\u4e1a
p3473
aV\u767e\u82b1\u6751
p3474
aVST\u4e91\u7ef4
p3475
aV\u5c71\u897f\u7126\u5316
p3476
aV\u4e91\u7164\u80fd\u6e90
p3477
aV\u6052\u6e90\u7164\u7535
p3478
aV\u5f00\u6ee6\u80a1\u4efd
p3479
aV\u5927\u540c\u7164\u4e1a
p3480
aV\u5b9d\u6cf0\u9686
p3481
aV\u9655\u897f\u9ed1\u732b
p3482
aV\u4e2d\u56fd\u795e\u534e
p3483
aV\u660a\u534e\u80fd\u6e90
p3484
aV\u9655\u897f\u7164\u4e1a
p3485
aV\u5e73\u7164\u80a1\u4efd
p3486
aV\u6f5e\u5b89\u73af\u80fd
p3487
aV\u4e2d\u7164\u80fd\u6e90
p3488
aV\u65b0\u96c6\u80fd\u6e90
p3489
aV\u795e\u5dde\u6570\u7801
p3490
aV\u9756\u8fdc\u7164\u7535
p3491
aV\u65b0\u5927\u6d32\uff21
p3492
aV\u7f8e\u9526\u80fd\u6e90
p3493
aV*ST\u5e73\u80fd
p3494
aV\u795e\u706b\u80a1\u4efd
p3495
aV\u5180\u4e2d\u80fd\u6e90
p3496
aV\u84dd\u7130\u63a7\u80a1
p3497
aV\u897f\u5c71\u7164\u7535
p3498
aV\u9732\u5929\u7164\u4e1a
p3499
aV\u4e0a\u6d77\u6885\u6797
p3500
aV\u83b2\u82b1\u5065\u5eb7
p3501
aV\u534e\u8d44\u5b9e\u4e1a
p3502
aV\u51ef\u4e50\u79d1\u6280
p3503
aV\u5b89\u742a\u9175\u6bcd
p3504
aV\u7ef4\u7ef4\u80a1\u4efd
p3505
aV\u6052\u987a\u918b\u4e1a
p3506
aV\u5929\u6da6\u4e73\u4e1a
p3507
aV\u4e09\u5143\u80a1\u4efd
p3508
aV\u5149\u660e\u4e73\u4e1a
p3509
aV\u7eff\u5ead\u6295\u8d44
p3510
aV\u4e2d\u7cae\u7cd6\u4e1a
p3511
aV\u661f\u6e56\u79d1\u6280
p3512
aV\u4e2d\u70ac\u9ad8\u65b0
p3513
aV\u6885\u82b1\u751f\u7269
p3514
aV\u4f0a\u5229\u80a1\u4efd
p3515
aV\u56fd\u6295\u4e2d\u9c81
p3516
aV\u7231\u666e\u80a1\u4efd
p3517
aV\u6d77\u5929\u5473\u4e1a
p3518
aV\u6df1\u6df1\u5b9d\uff21
p3519
aV\u5e7f\u5f18\u63a7\u80a1
p3520
aV\u897f\u738b\u98df\u54c1
p3521
aV\u9ed1\u829d\u9ebb
p3522
aV\u51ef\u6492\u65c5\u6e38
p3523
aV\u627f\u5fb7\u9732\u9732
p3524
aV\u4e1c\u51cc\u56fd\u9645
p3525
aV\u53cc\u6c47\u53d1\u5c55
p3526
aV\u5357\u5b81\u7cd6\u4e1a
p3527
aV\u4e2d\u7cae\u751f\u5316
p3528
aV*ST\u4e2d\u57fa
p3529
aV\u4e09\u5168\u98df\u54c1
p3530
aV\u5929\u5b9d\u98df\u54c1
p3531
aV\u4fdd\u9f84\u5b9d
p3532
aV\u7687\u6c0f\u96c6\u56e2
p3533
aV\u5f97\u5229\u65af
p3534
aV\u9ed1\u725b\u98df\u54c1
p3535
aV\u53cc\u5854\u98df\u54c1
p3536
aV\u4f73\u9686\u80a1\u4efd
p3537
aV\u6daa\u9675\u69a8\u83dc
p3538
aV\u91d1\u5b57\u706b\u817f
p3539
aV\u6d3d\u6d3d\u98df\u54c1
p3540
aV\u767e\u6da6\u80a1\u4efd
p3541
aV\u8d1d\u56e0\u7f8e
p3542
aV\u597d\u60f3\u4f60
p3543
aV\u9f99\u529b\u751f\u7269
p3544
aV\u91d1\u8fbe\u5a01
p3545
aV\u52a0\u52a0\u98df\u54c1
p3546
aV\u514b\u660e\u9762\u4e1a
p3547
aV\u714c\u4e0a\u714c
p3548
aV\u6d77\u6b23\u98df\u54c1
p3549
aV\u9ea6\u8da3\u5c14
p3550
aV\u9f99\u5927\u8089\u98df
p3551
aV\u71d5\u5858\u4e73\u4e1a
p3552
aV\u6668\u5149\u751f\u7269
p3553
aV\u6c64\u81e3\u500d\u5065
p3554
aV\u91cf\u5b50\u9ad8\u79d1
p3555
aV\u6717\u6e90\u80a1\u4efd
p3556
aV\u82b1\u56ed\u751f\u7269
p3557
aV*ST\u65b0\u4ebf
p3558
aVS*ST\u56fd\u74f7
p3559
aV\u677e\u53d1\u80a1\u4efd
p3560
aV\u51a0\u798f\u80a1\u4efd
p3561
aV\u60a6\u5fc3\u5065\u5eb7
p3562
aV\u6587\u5316\u957f\u57ce
p3563
aV\u5f00\u5c14\u65b0\u6750
p3564
aV\u9053\u6c0f\u6280\u672f
p3565
aV\u6807\u51c6\u80a1\u4efd
p3566
aV\u4e2d\u6bc5\u8fbe
p3567
aV\u4e0a\u5de5\u7533\u8d1d
p3568
aV\u7ecf\u7eac\u7eba\u673a
p3569
aV\u4e2d\u6377\u8d44\u6e90
p3570
aV\u65b9\u6b63\u7535\u673a
p3571
aV\u91d1\u8f6e\u80a1\u4efd
p3572
aV\u4e09\u8054\u8679\u666e
p3573
aV\u90af\u90f8\u94a2\u94c1
p3574
aV\u6b66\u94a2\u80a1\u4efd
p3575
aV\u5305\u94a2\u80a1\u4efd
p3576
aV\u5b9d\u94a2\u80a1\u4efd
p3577
aV\u5c71\u4e1c\u94a2\u94c1
p3578
aV\u83b1\u94a2\u80a1\u4efd
p3579
aV\u897f\u5b81\u7279\u94a2
p3580
aV\u676d\u94a2\u80a1\u4efd
p3581
aV\u65b0\u65e5\u6052\u529b
p3582
aV\u521b\u5174\u8d44\u6e90
p3583
aV\u51cc\u94a2\u80a1\u4efd
p3584
aV\u5357\u94a2\u80a1\u4efd
p3585
aV\u9152\u94a2\u5b8f\u5174
p3586
aV\u627f\u5fb7\u9492\u949b
p3587
aV\u629a\u987a\u7279\u94a2
p3588
aV\u676d\u8427\u94a2\u6784
p3589
aV\u7cbe\u5de5\u94a2\u6784
p3590
aV\u65b9\u5927\u7279\u94a2
p3591
aV\u5b8f\u8fbe\u77ff\u4e1a
p3592
aV\u5927\u897f\u6d0b
p3593
aV\u5b89\u9633\u94a2\u94c1
p3594
aV\u516b\u4e00\u94a2\u94c1
p3595
aV\u65b0\u94a2\u80a1\u4efd
p3596
aV\u9c81\u94f6\u6295\u8d44
p3597
aV\u9a6c\u94a2\u80a1\u4efd
p3598
aV\u5e7f\u6cfd\u80a1\u4efd
p3599
aV\u8d35\u7ef3\u80a1\u4efd
p3600
aV\u67f3\u94a2\u80a1\u4efd
p3601
aV*ST\u91cd\u94a2
p3602
aV\u7389\u9f99\u80a1\u4efd
p3603
aV\u6d77\u5357\u77ff\u4e1a
p3604
aV\u5c71\u4e1c\u5730\u77ff
p3605
aV*ST\u9492\u949b
p3606
aV\u91d1\u5cad\u77ff\u4e1a
p3607
aV\u5927\u51b6\u7279\u94a2
p3608
aV\u6cb3\u94a2\u80a1\u4efd
p3609
aV\u97f6\u94a2\u677e\u5c71
p3610
aV\u672c\u94a2\u677f\u6750
p3611
aV\u65b0\u5174\u94f8\u7ba1
p3612
aV\u592a\u94a2\u4e0d\u9508
p3613
aV\u6cd5 \u5c14 \u80dc
p3614
aV\u978d\u94a2\u80a1\u4efd
p3615
aV*ST\u534e\u83f1
p3616
aV\u9996\u94a2\u80a1\u4efd
p3617
aV\u5b89\u6cf0\u79d1\u6280
p3618
aV\u6c99\u94a2\u80a1\u4efd
p3619
aV\u4e09\u94a2\u95fd\u5149
p3620
aV\u6052\u661f\u79d1\u6280
p3621
aV\u4e45\u7acb\u7279\u6750
p3622
aV\u5317\u8baf\u96c6\u56e2
p3623
aV\u4e2d\u539f\u7279\u94a2
p3624
aV\u91d1\u6d32\u7ba1\u9053
p3625
aV\u5e38\u5b9d\u80a1\u4efd
p3626
aV\u5927\u91d1\u91cd\u5de5
p3627
aV\u5149\u6b63\u96c6\u56e2
p3628
aV\u9e3f\u8def\u94a2\u6784
p3629
aV\u4e1c\u65b9\u94c1\u5854
p3630
aV\u54c8\u5c14\u65af
p3631
aV\u5bcc\u714c\u94a2\u6784
p3632
aV\u7ea2\u5b87\u65b0\u6750
p3633
aV\u9996\u521b\u80a1\u4efd
p3634
aV\u8fdc\u8fbe\u73af\u4fdd
p3635
aV\u521b\u4e1a\u73af\u4fdd
p3636
aV\u4e2d\u6750\u8282\u80fd
p3637
aV\u9ad8\u80fd\u73af\u5883
p3638
aV\u9f99\u9a6c\u73af\u536b
p3639
aV\u4e2d\u539f\u73af\u4fdd
p3640
aV\u5174\u84c9\u73af\u5883
p3641
aV\u542f\u8fea\u6851\u5fb7
p3642
aV\u4e91\u6295\u751f\u6001
p3643
aV\u51ef\u7f8e\u7279\u6c14
p3644
aV\u6e05\u65b0\u73af\u5883
p3645
aV\u957f\u9752\u96c6\u56e2
p3646
aV\u4e1c\u6c5f\u73af\u4fdd
p3647
aV\u4e07\u90a6\u8fbe
p3648
aV\u78a7\u6c34\u6e90
p3649
aV\u795e\u96fe\u73af\u4fdd
p3650
aV\u4e2d\u7535\u73af\u4fdd
p3651
aV\u6c38\u6e05\u73af\u4fdd
p3652
aV\u7ef4\u5c14\u5229
p3653
aV\u94c1\u6c49\u751f\u6001
p3654
aV\u5df4\u5b89\u6c34\u52a1
p3655
aV\u5929\u58d5\u73af\u5883
p3656
aV\u8fea\u68ee\u80a1\u4efd
p3657
aV\u8499\u8349\u751f\u6001
p3658
aV\u56fd\u796f\u73af\u4fdd
p3659
aV\u535a\u4e16\u79d1
p3660
aV\u53e4\u8d8a\u9f99\u5c71
p3661
aV\u4e2d\u8461\u80a1\u4efd
p3662
aV\u540c\u6d4e\u5802
p3663
aV\u91cd\u5e86\u5564\u9152
p3664
aV\u4f0a\u529b\u7279
p3665
aV\u91d1\u79cd\u5b50\u9152
p3666
aV\u6d77\u5357\u6930\u5c9b
p3667
aV\u901a\u8461\u80a1\u4efd
p3668
aV\u8d35\u5dde\u8305\u53f0
p3669
aV\u83ab\u9ad8\u80a1\u4efd
p3670
aV\u8001\u767d\u5e72\u9152
p3671
aV\u60e0\u6cc9\u5564\u9152
p3672
aV\u9752\u5c9b\u5564\u9152
p3673
aV\u91d1\u67ab\u9152\u4e1a
p3674
aV\u6cb1\u724c\u820d\u5f97
p3675
aV\u6c34\u4e95\u574a
p3676
aV\u5c71\u897f\u6c7e\u9152
p3677
aV\u4f1a\u7a3d\u5c71
p3678
aV\u4eca\u4e16\u7f18
p3679
aV\u897f\u90e8\u521b\u4e1a
p3680
aV\u6cf8\u5dde\u8001\u7a96
p3681
aV\u53e4\u4e95\u8d21\u9152
p3682
aV\u71d5\u4eac\u5564\u9152
p3683
aV\u897f\u85cf\u53d1\u5c55
p3684
aV\u9152\u9b3c\u9152
p3685
aV\u4e94 \u7cae \u6db2
p3686
aV\u987a\u946b\u519c\u4e1a
p3687
aV\u5f20 \u88d5\uff21
p3688
aV\u5170\u5dde\u9ec4\u6cb3
p3689
aV\u7687\u53f0\u9152\u4e1a
p3690
aV\u6d0b\u6cb3\u80a1\u4efd
p3691
aV\u73e0\u6c5f\u5564\u9152
p3692
aV\u9752\u9752\u7a1e\u9152
p3693
aVN\u534e\u80fd
p3694
aV\u8d35\u5dde\u71c3\u6c14
p3695
aV\u7231\u67ef\u8fea
p3696
aV\u5c71\u4e1c\u51fa\u7248
p3697
aV\u8d22\u901a\u8bc1\u5238
p3698
aV\u4e50\u60e0\u56fd\u9645
p3699
aV\u5251\u6865\u79d1\u6280
p3700
aV\u5408\u76db\u7845\u4e1a
p3701
aV\u5927\u4e1a\u80a1\u4efd
p3702
aV\u6cf0\u745e\u673a\u5668
p3703
aV\u6c34\u661f\u5bb6\u7eba
p3704
aV\u91d1\u8fb0\u80a1\u4efd
p3705
aV\u98ce\u8bed\u7b51
p3706
aV\u632f\u9759\u80a1\u4efd
p3707
aV\u7fd4\u6e2f\u79d1\u6280
p3708
aV\u632f\u6c5f\u80a1\u4efd
p3709
aV\u73c0\u83b1\u96c5
p3710
aV\u4eac\u534e\u6fc0\u5149
p3711
aV\u4e2d\u66fc\u77f3\u6cb9
p3712
aV\u749e\u6cf0\u6765
p3713
aV\u6052\u6797\u80a1\u4efd
p3714
aV\u6676\u534e\u65b0\u6750
p3715
aV\u6668\u4e30\u79d1\u6280
p3716
aV\u9999\u98d8\u98d8
p3717
aV\u963f\u79d1\u529b
p3718
aV\u8c6a\u80fd\u80a1\u4efd
p3719
aV\u6d1b\u51ef\u80a1\u4efd
p3720
aV\u597d\u592a\u592a
p3721
aV\u4e1c\u5b8f\u80a1\u4efd
p3722
aV\u6625\u79cb\u7535\u5b50
p3723
aV\u4f73\u529b\u56fe
p3724
aV\u82cf\u535a\u7279
p3725
aV\u5408\u529b\u79d1\u6280
p3726
aV\u91d1\u9e3f\u987a
p3727
aV\u4e3d\u5c9b\u65b0\u6750
p3728
aV\u4e2d\u519c\u7acb\u534e
p3729
aV\u76d8\u9f99\u836f\u4e1a
p3730
aV\u91d1\u9038\u5f71\u89c6
p3731
aV\u534e\u68ee\u5236\u836f
p3732
aV\u5fb7\u751f\u79d1\u6280
p3733
aV\u96c6\u6cf0\u80a1\u4efd
p3734
aV\u5e84\u56ed\u7267\u573a
p3735
aV\u4f5b\u71c3\u80a1\u4efd
p3736
aV\u4e2d\u65b0\u8d5b\u514b
p3737
aV\u5965\u58eb\u5eb7
p3738
aV\u4e2d\u6b23\u6c1f\u6750
p3739
aV\u6df1\u5357\u7535\u8def
p3740
aV\u91d1\u5965\u535a
p3741
aV\u540d\u81e3\u5065\u5eb7
p3742
aV\u805a\u707f\u5149\u7535
p3743
aV\u7cbe\u7814\u79d1\u6280
p3744
aV\u4e07\u9686\u5149\u7535
p3745
aV\u5e7f\u54c8\u901a\u4fe1
p3746
aV\u6c38\u798f\u80a1\u4efd
p3747
aV\u82f1\u53ef\u745e
p3748
aV\u51ef\u4f26\u80a1\u4efd
p3749
aV\u56fd\u7acb\u79d1\u6280
p3750
aV\u534e\u4fe1\u65b0\u6750
p3751
aV\u957f\u76db\u8f74\u627f
p3752
aV\u5b89\u8fbe\u7ef4\u5c14
p3753
aV\u6d77\u5ddd\u667a\u80fd
p3754
aV\u6021\u8fbe\u80a1\u4efd
p3755
aV\u65b0\u4f59\u56fd\u79d1
p3756
aV\u4e00\u54c1\u7ea2
p3757
aV\u836f\u77f3\u79d1\u6280
p3758
aV\u5b8f\u8fbe\u7535\u5b50
p3759
aV\u6da6\u79be\u6750\u6599
p3760
aV\u4e50\u6b4c\u80a1\u4efd
p3761
aV\u79d1\u521b\u4fe1\u606f
p3762
aV\u79d1\u521b\u65b0\u6e90
p3763
aV\u8bbe\u7814\u9662
p3764
aV*ST\u5929\u6210
p3765
aV\u54c8\u7a7a\u8c03
p3766
aV\u5b9d\u5149\u80a1\u4efd
p3767
aV\u52a8\u529b\u6e90
p3768
aV\u767e\u5229\u7535\u6c14
p3769
aV\u4e2d\u56fd\u52a8\u529b
p3770
aV\u91d1\u81ea\u5929\u6b63
p3771
aV\u7cbe\u8fbe\u80a1\u4efd
p3772
aV*ST\u4e07\u91cc
p3773
aV\u5b8f\u53d1\u80a1\u4efd
p3774
aV\u9a86\u9a7c\u80a1\u4efd
p3775
aV\u5e7f\u7535\u7535\u6c14
p3776
aV\u5f18\u8baf\u79d1\u6280
p3777
aV\u4e1c\u65b9\u7535\u7f06
p3778
aV\u76db\u6d0b\u79d1\u6280
p3779
aV\u4e2d\u7535\u7535\u673a
p3780
aV\u5fb7\u8d5b\u7535\u6c60
p3781
aV*ST\u4f73\u7535
p3782
aV\u5b81\u6ce2\u4e1c\u529b
p3783
aV\u6c5f\u7279\u7535\u673a
p3784
aV\u5927\u6d0b\u7535\u673a
p3785
aV\u6d59\u5bcc\u63a7\u80a1
p3786
aV\u4e2d\u7535\u946b\u9f99
p3787
aV\u4e2d\u5229\u96c6\u56e2
p3788
aV\u7406\u5de5\u73af\u79d1
p3789
aV\u82f1\u5a01\u817e
p3790
aV\u79d1\u534e\u6052\u76db
p3791
aV\u79ef\u6210\u7535\u5b50
p3792
aV\u4e2d\u6052\u7535\u6c14
p3793
aV\u79d1\u8fdc\u80a1\u4efd
p3794
aV\u957f\u9ad8\u96c6\u56e2
p3795
aV\u65b0\u8054\u7535\u5b50
p3796
aV\u901a\u8fbe\u52a8\u529b
p3797
aV\u5723\u9633\u80a1\u4efd
p3798
aV\u5927\u8fde\u7535\u74f7
p3799
aV\u9732\u7b11\u79d1\u6280
p3800
aV\u6c11\u76db\u91d1\u79d1
p3801
aV\u4fe1\u8d28\u7535\u673a
p3802
aV\u9996\u822a\u8282\u80fd
p3803
aV\u56fd\u76db\u91d1\u63a7
p3804
aV\u731b\u72ee\u79d1\u6280
p3805
aV\u826f\u4fe1\u7535\u5668
p3806
aV\u7535\u5149\u79d1\u6280
p3807
aV\u96c4\u97ec\u80a1\u4efd
p3808
aV\u5357\u90fd\u7535\u6e90
p3809
aV\u4e2d\u73af\u88c5\u5907
p3810
aV\u4e1c\u65b9\u7535\u70ed
p3811
aV\u79d1\u5927\u667a\u80fd
p3812
aV\u91d1\u4fe1\u8bfa
p3813
aV\u901a\u5149\u7ebf\u7f06
p3814
aV\u9633\u5149\u7535\u6e90
p3815
aV\u6e29\u5dde\u5b8f\u4e30
p3816
aV\u5149\u4e00\u79d1\u6280
p3817
aV\u6613\u4e8b\u7279
p3818
aV\u5730\u5c14\u6c49\u5b87
p3819
aV\u51ef\u53d1\u7535\u6c14
p3820
aV\u9e4f\u8f89\u80fd\u6e90
p3821
aV\u5168\u4fe1\u80a1\u4efd
p3822
aV\u6b4c\u534e\u6709\u7ebf
p3823
aV\u4e2d\u89c6\u4f20\u5a92
p3824
aVST\u5c71\u6c34
p3825
aV\u4e2d\u6587\u4f20\u5a92
p3826
aV\u65f6\u4ee3\u51fa\u7248
p3827
aV\u6d59\u6570\u6587\u5316
p3828
aV\u4e1c\u65b9\u660e\u73e0
p3829
aV\u957f\u6c5f\u4f20\u5a92
p3830
aV\u65b0\u534e\u4f20\u5a92
p3831
aV\u5e7f\u7535\u7f51\u7edc
p3832
aV\u6c5f\u82cf\u6709\u7ebf
p3833
aV\u4e2d\u5357\u4f20\u5a92
p3834
aV\u7696\u65b0\u4f20\u5a92
p3835
aV\u51e4\u51f0\u4f20\u5a92
p3836
aV\u5409\u89c6\u4f20\u5a92
p3837
aV\u51fa\u7248\u4f20\u5a92
p3838
aV\u534e\u6570\u4f20\u5a92
p3839
aV\u5357\u534e\u751f\u7269
p3840
aV\u534e\u5a92\u63a7\u80a1
p3841
aV\u6e56\u5317\u5e7f\u7535
p3842
aV\u5927\u5730\u4f20\u5a92
p3843
aV\u534e\u95fb\u4f20\u5a92
p3844
aV\u957f\u57ce\u52a8\u6f2b
p3845
aV\u7535\u5e7f\u4f20\u5a92
p3846
aV\u957f\u57ce\u5f71\u89c6
p3847
aV\u5370\u7eaa\u4f20\u5a92
p3848
aV\u7ca4 \u4f20 \u5a92
p3849
aV\u5929\u5a01\u89c6\u8baf
p3850
aV\u5965\u98de\u5a31\u4e50
p3851
aV\u5b8c\u7f8e\u4e16\u754c
p3852
aV\u601d\u7f8e\u4f20\u5a92
p3853
aV\u4e07\u8fbe\u7535\u5f71
p3854
aV\u534e\u8c0a\u5144\u5f1f
p3855
aV\u534e\u7b56\u5f71\u89c6
p3856
aV\u5929\u821f\u6587\u5316
p3857
aV\u5149\u7ebf\u4f20\u5a92
p3858
aV\u534e\u5f55\u767e\u7eb3
p3859
aV\u65b0\u6587\u5316
p3860
aV\u4e2d\u6587\u5728\u7ebf
p3861
aV\u5510\u5fb7\u5f71\u89c6
p3862
aV\u65b0\u7586\u5929\u4e1a
p3863
aV\u6f84\u661f\u80a1\u4efd
p3864
aVST\u660e\u79d1
p3865
aV\u4e50\u51ef\u80f6\u7247
p3866
aV\u5174\u53d1\u96c6\u56e2
p3867
aV\u5b9d\u7855\u80a1\u4efd
p3868
aV\u5de8\u5316\u80a1\u4efd
p3869
aV*ST\u660c\u4e5d
p3870
aV\u57ce\u5e02\u4f20\u5a92
p3871
aV\u4e24\u9762\u9488
p3872
aV\u5609\u5316\u80fd\u6e90
p3873
aV\u4ebf\u5229\u6d01\u80fd
p3874
aV\u592a\u5316\u80a1\u4efd
p3875
aV\u5b89\u8fea\u82cf
p3876
aVST\u5357\u5316
p3877
aV\u4e07\u534e\u5316\u5b66
p3878
aV\u4e0a\u6d77\u5bb6\u5316
p3879
aV\u4e9a\u661f\u5316\u5b66
p3880
aV\u5170\u592a\u5b9e\u4e1a
p3881
aV\u4e2d\u6cb9\u5de5\u7a0b
p3882
aV\u6d59\u6c5f\u9f99\u76db
p3883
aV\u7ea2\u661f\u53d1\u5c55
p3884
aV\u5929\u79d1\u80a1\u4efd
p3885
aV\u4e09\u53cb\u5316\u5de5
p3886
aV\u53cc\u826f\u8282\u80fd
p3887
aV\u9e4f\u6b23\u8d44\u6e90
p3888
aV\u718a\u732b\u91d1\u63a7
p3889
aV\u6c2f\u78b1\u5316\u5de5
p3890
aV*ST\u7231\u5bcc
p3891
aV\u91d1\u725b\u5316\u5de5
p3892
aV\u6c5f\u82cf\u7d22\u666e
p3893
aV*ST\u4e39\u79d1
p3894
aV\u96f7\u9e23\u79d1\u5316
p3895
aV\u6d77\u5357\u6a61\u80f6
p3896
aV\u4e1c\u6750\u79d1\u6280
p3897
aV\u541b\u6b63\u96c6\u56e2
p3898
aV\u6ee8\u5316\u80a1\u4efd
p3899
aV\u5b8f\u660c\u7535\u5b50
p3900
aV\u4e07\u76db\u80a1\u4efd
p3901
aV\u548c\u90a6\u751f\u7269
p3902
aV\u4e9a\u90a6\u80a1\u4efd
p3903
aV\u91d1\u8def\u96c6\u56e2
p3904
aV\u5e7f\u5dde\u6d6a\u5947
p3905
aV\u91d1\u6d66\u949b\u4e1a
p3906
aV\u6e1d\u4e09\u5ce1\uff21
p3907
aV\u5929\u8302\u96c6\u56e2
p3908
aV\u82f1 \u529b \u7279
p3909
aV\u5929\u590f\u667a\u6167
p3910
aV\u8fdc\u5174\u80fd\u6e90
p3911
aV\u6c88\u9633\u5316\u5de5
p3912
aV\u53cc\u73af\u79d1\u6280
p3913
aV\u5357\u98ce\u5316\u5de5
p3914
aV*ST\u4e09\u7ef4
p3915
aV\u65b9\u5927\u5316\u5de5
p3916
aV\u5c71\u4e1c\u6d77\u5316
p3917
aV\u4e2d\u9f0e\u80a1\u4efd
p3918
aV\u5927\u5e86\u534e\u79d1
p3919
aV\u8bda\u5fd7\u80a1\u4efd
p3920
aV\u4f20\u5316\u667a\u8054
p3921
aV\u6c38\u65b0\u80a1\u4efd
p3922
aV\u4e45\u8054\u53d1\u5c55
p3923
aV\u4e91\u5357\u80fd\u6295
p3924
aV\u5fb7\u7f8e\u5316\u5de5
p3925
aV\u6c5f\u5c71\u5316\u5de5
p3926
aV\u9ed1\u732b\u80a1\u4efd
p3927
aV\u4e2d\u6cf0\u5316\u5b66
p3928
aV\u9752\u5c9b\u91d1\u738b
p3929
aV\u5357\u5cad\u6c11\u7206
p3930
aV\u5174\u5316\u80a1\u4efd
p3931
aV\u6e58\u6f6d\u7535\u5316
p3932
aV\u5b89 \u7eb3 \u8fbe
p3933
aV\u4e2d\u6838\u949b\u767d
p3934
aV\u7ea2 \u5b9d \u4e3d
p3935
aV\u878d\u6377\u80a1\u4efd
p3936
aV\u4e5d\u9f0e\u65b0\u6750
p3937
aV\u5b8f\u8fbe\u65b0\u6750
p3938
aV\u5408\u529b\u6cf0
p3939
aV\u4e09 \u529b \u58eb
p3940
aV\u6c5f\u5357\u5316\u5de5
p3941
aV\u5317\u5316\u80a1\u4efd
p3942
aV\u8054\u5316\u79d1\u6280
p3943
aV\u5146\u65b0\u80a1\u4efd
p3944
aV\u4e50\u901a\u80a1\u4efd
p3945
aV\u6c38\u592a\u79d1\u6280
p3946
aV\u65b0\u7eb6\u79d1\u6280
p3947
aV\u540c\u5fb7\u5316\u5de5
p3948
aV\u795e\u5251\u80a1\u4efd
p3949
aV\u56fd\u521b\u9ad8\u65b0
p3950
aV\u53cc\u7bad\u80a1\u4efd
p3951
aV\u5929\u539f\u96c6\u56e2
p3952
aV\u53cc\u8c61\u80a1\u4efd
p3953
aV\u591a\u6c1f\u591a
p3954
aV\u9f50\u7fd4\u817e\u8fbe
p3955
aV\u96c5\u514b\u79d1\u6280
p3956
aV\u5fc5\u5eb7\u80a1\u4efd
p3957
aV\u95f0\u571f\u80a1\u4efd
p3958
aV\u9f99\u661f\u5316\u5de5
p3959
aV\u5eb7\u5f97\u65b0
p3960
aV\u5929\u9a6c\u7cbe\u5316
p3961
aV\u767e\u5ddd\u80a1\u4efd
p3962
aV\u4fdd\u5229\u5730\u4ea7
p3963
aV\u6d59\u6c5f\u5e7f\u53a6
p3964
aV\u4e5d\u9f0e\u6295\u8d44
p3965
aV\u51a0\u57ce\u5927\u901a
p3966
aV\u5b8b\u90fd\u80a1\u4efd
p3967
aV\u6d77\u6cf0\u53d1\u5c55
p3968
aV\u5927\u540d\u57ce
p3969
aV\u54c8\u9ad8\u79d1
p3970
aV\u6d59\u6c5f\u4e1c\u65e5
p3971
aV\u4e1c\u6e56\u9ad8\u65b0
p3972
aV\u5927\u9f99\u5730\u4ea7
p3973
aV\u9999\u6c5f\u63a7\u80a1
p3974
aV\u5367\u9f99\u5730\u4ea7
p3975
aV\u7f8e\u90fd\u80fd\u6e90
p3976
aV\u683c\u529b\u5730\u4ea7
p3977
aV\u65b0\u6e56\u4e2d\u5b9d
p3978
aV\u9c81\u5546\u7f6e\u4e1a
p3979
aV*ST\u677e\u6c5f
p3980
aV\u4e91\u5357\u57ce\u6295
p3981
aV\u534e\u4e1a\u8d44\u672c
p3982
aV\u4e07\u901a\u5730\u4ea7
p3983
aV\u5317\u4eac\u57ce\u5efa
p3984
aV\u5929\u623f\u53d1\u5c55
p3985
aV\u534e\u53d1\u80a1\u4efd
p3986
aV\u534e\u590f\u5e78\u798f
p3987
aV\u9996\u5f00\u80a1\u4efd
p3988
aV\u91d1\u5730\u96c6\u56e2
p3989
aV\u7ca4\u6cf0\u80a1\u4efd
p3990
aV\u7a7a\u6e2f\u80a1\u4efd
p3991
aV\u534e\u4e3d\u5bb6\u65cf
p3992
aV\u9ed1\u7261\u4e39
p3993
aV\u6816\u971e\u5efa\u8bbe
p3994
aV\u8fea\u9a6c\u80a1\u4efd
p3995
aV\u4e2d\u73e0\u533b\u7597
p3996
aV\u7eff\u5730\u63a7\u80a1
p3997
aV\u4e30\u534e\u80a1\u4efd
p3998
aV\u534e\u946b\u80a1\u4efd
p3999
aV\u65b0\u9ec4\u6d66
p4000
aV\u4e07\u4e1a\u4f01\u4e1a
p4001
aV\u4fe1\u8fbe\u5730\u4ea7
p4002
aV\u9646\u5bb6\u5634
p4003
aV\u5929\u5730\u6e90
p4004
aV\u4e2d\u534e\u4f01\u4e1a
p4005
aV\u4eac\u6295\u53d1\u5c55
p4006
aV\u73e0\u6c5f\u5b9e\u4e1a
p4007
aV*ST\u5339\u51f8
p4008
aV\u51e4\u51f0\u80a1\u4efd
p4009
aV\u5b81\u6ce2\u5bcc\u8fbe
p4010
aVST\u65b0\u6885
p4011
aVS*ST\u524d\u950b
p4012
aV\u534e\u8fdc\u5730\u4ea7
p4013
aV\u95fb\u6cf0\u79d1\u6280
p4014
aV\u4e0a\u5b9e\u53d1\u5c55
p4015
aV*ST\u8fd0\u76db
p4016
aV\u897f\u85cf\u57ce\u6295
p4017
aV\u4eac\u80fd\u7f6e\u4e1a
p4018
aV\u5929\u4e1a\u80a1\u4efd
p4019
aV\u4e16\u8302\u80a1\u4efd
p4020
aV\u4e2d\u822a\u9ad8\u79d1
p4021
aV\u4e2d\u623f\u80a1\u4efd
p4022
aV\u5317\u8fb0\u5b9e\u4e1a
p4023
aV\u4e07 \u79d1\uff21
p4024
aV\u4e16\u7eaa\u661f\u6e90
p4025
aV\u6df1\u632f\u4e1a\uff21
p4026
aV\u4e2d\u56fd\u5b9d\u5b89
p4027
aV\u6df1\u7269\u4e1aA
p4028
aV\u6c99\u6cb3\u80a1\u4efd
p4029
aV\u62db\u5546\u5730\u4ea7
p4030
aV\u6df1\u6df1\u623f\uff21
p4031
aV\u4e2d\u7cae\u5730\u4ea7
p4032
aV\u534e\u8054\u63a7\u80a1
p4033
aV\u6df1\u5927\u901a
p4034
aV\u4e1c\u65ed\u84dd\u5929
p4035
aV\u4e2d\u6d32\u63a7\u80a1
p4036
aV\u4e2d\u822a\u5730\u4ea7
p4037
aV\u6cdb\u6d77\u63a7\u80a1
p4038
aV\u7687\u5ead\u56fd\u9645
p4039
aV\u91d1 \u878d \u8857
p4040
aV\u7eff\u666f\u63a7\u80a1
p4041
aV\u73e0\u6c5f\u63a7\u80a1
p4042
aV\u4e2d\u6da6\u8d44\u6e90
p4043
aV\u6e1d \u5f00 \u53d1
p4044
aV\u8363\u5b89\u5730\u4ea7
p4045
aV*ST\u7d2b\u5b66
p4046
aV\u4e07\u6cfd\u80a1\u4efd
p4047
aV\u5e7f\u5b87\u53d1\u5c55
p4048
aV\u4e2d\u5929\u91d1\u878d
p4049
aV\u83b1\u8335\u4f53\u80b2
p4050
aV\u6d77\u5fb7\u80a1\u4efd
p4051
aV\u7ca4\u5b8f\u8fdc\uff21
p4052
aV\u9633\u5149\u80a1\u4efd
p4053
aV\u7ef5\u77f3\u6295\u8d44
p4054
aV\u6d77\u822a\u6295\u8d44
p4055
aV\u65b0\u534e\u8054
p4056
aV\u987a\u53d1\u6052\u4e1a
p4057
aV\u91d1\u79d1\u80a1\u4efd
p4058
aV\u7f8e\u597d\u7f6e\u4e1a
p4059
aV\u8363\u4e30\u63a7\u80a1
p4060
aV\u9633 \u5149 \u57ce
p4061
aV\u4e9a\u592a\u5b9e\u4e1a
p4062
aV\u6d66\u53d1\u94f6\u884c
p4063
aV\u534e\u590f\u94f6\u884c
p4064
aV\u6c11\u751f\u94f6\u884c
p4065
aV\u4e2d\u4fe1\u8bc1\u5238
p4066
aV\u62db\u5546\u94f6\u884c
p4067
aV\u56fd\u91d1\u8bc1\u5238
p4068
aV\u897f\u6c34\u80a1\u4efd
p4069
aV\u897f\u5357\u8bc1\u5238
p4070
aV\u7231\u5efa\u96c6\u56e2
p4071
aV\u4e2d\u822a\u8d44\u672c
p4072
aV\u5b89\u4fe1\u4fe1\u6258
p4073
aV\u9999\u6ea2\u878d\u901a
p4074
aV\u6d77\u901a\u8bc1\u5238
p4075
aV\u4e1c\u65b9\u8bc1\u5238
p4076
aV\u62db\u5546\u8bc1\u5238
p4077
aV\u5357\u4eac\u94f6\u884c
p4078
aV\u592a\u5e73\u6d0b
p4079
aV\u5174\u4e1a\u94f6\u884c
p4080
aV\u5317\u4eac\u94f6\u884c
p4081
aV\u4e1c\u5174\u8bc1\u5238
p4082
aV\u519c\u4e1a\u94f6\u884c
p4083
aV\u4e2d\u56fd\u5e73\u5b89
p4084
aV\u4ea4\u901a\u94f6\u884c
p4085
aV\u65b0\u534e\u4fdd\u9669
p4086
aV\u5174\u4e1a\u8bc1\u5238
p4087
aV\u5de5\u5546\u94f6\u884c
p4088
aV\u4e1c\u5434\u8bc1\u5238
p4089
aV\u4e2d\u56fd\u592a\u4fdd
p4090
aV\u4e2d\u56fd\u4eba\u5bff
p4091
aV\u534e\u6cf0\u8bc1\u5238
p4092
aV\u5149\u5927\u8bc1\u5238
p4093
aV\u5149\u5927\u94f6\u884c
p4094
aV\u65b9\u6b63\u8bc1\u5238
p4095
aV\u5efa\u8bbe\u94f6\u884c
p4096
aV\u4e2d\u56fd\u94f6\u884c
p4097
aV\u4e2d\u4fe1\u94f6\u884c
p4098
aV\u5e73\u5b89\u94f6\u884c
p4099
aV\u7533\u4e07\u5b8f\u6e90
p4100
aV\u6e24\u6d77\u91d1\u63a7
p4101
aV\u5b8f\u6e90\u8bc1\u5238
p4102
aV\u9655\u56fd\u6295\uff21
p4103
aV\u4e1c\u5317\u8bc1\u5238
p4104
aV\u9526\u9f99\u80a1\u4efd
p4105
aV\u56fd\u5143\u8bc1\u5238
p4106
aV\u56fd\u6d77\u8bc1\u5238
p4107
aV\u5e7f\u53d1\u8bc1\u5238
p4108
aV\u957f\u6c5f\u8bc1\u5238
p4109
aV\u5b81\u6ce2\u94f6\u884c
p4110
aV\u5c71\u897f\u8bc1\u5238
p4111
aV\u897f\u90e8\u8bc1\u5238
p4112
aV\u56fd\u4fe1\u8bc1\u5238
p4113
aV*ST\u8054\u8c0a
p4114
aVS*ST\u7cbe\u5bc6
p4115
aV\u9ec4\u6cb3\u65cb\u98ce
p4116
aV\u65b9\u5927\u70ad\u7d20
p4117
aV\u4e0a\u5b9e\u533b\u836f
p4118
aVPT\u6c34\u4ed9
p4119
aV*ST\u65af\u8fbe
p4120
aV*ST\u6570\u7801
p4121
aVST\u751f\u6001
p4122
aV*ST\u54c8\u6148
p4123
aV\u9c81\u4fe1\u521b\u6295
p4124
aV*ST\u8fbe\u66fc
p4125
aVST\u978d\u4e00\u5de5
p4126
aV\u4e0a\u836f\u8f6c\u6362
p4127
aV*ST\u4e2d\u5ddd
p4128
aV*ST\u4fe1\u8054
p4129
aV\u65b0\u901a\u8054
p4130
aV\u5a01\u5e1d\u80a1\u4efd
p4131
aV\u77f3\u5927\u80dc\u534e
p4132
aV\u6da6\u8fbe\u533b\u7597
p4133
aV\u7ea2\u873b\u8713
p4134
aV\u8fce\u9a7e\u8d21\u9152
p4135
aV\u96ea\u5cf0\u79d1\u6280
p4136
aV\u534e\u94c1\u79d1\u6280
p4137
aV\u91d1\u6d77\u73af\u5883
p4138
aV\u666e\u83b1\u67ef
p4139
aV\u4f1f\u660e\u73af\u4fdd
p4140
aV\u5f15\u529b\u4f20\u5a92
p4141
aV\u7075\u5eb7\u836f\u4e1a
p4142
aV\u77f3\u82f1\u80a1\u4efd
p4143
aV\u6d77\u5229\u751f\u7269
p4144
aV\u5409\u7965\u822a\u7a7a
p4145
aV\u6c38\u521b\u667a\u80fd
p4146
aV\u91d1\u6865\u4fe1\u606f
p4147
aV\u918b\u5316\u80a1\u4efd
p4148
aV\u827e\u534e\u96c6\u56e2
p4149
aV\u4e91\u8d5b\uff22\u80a1
p4150
aV\u5e02\u5317B\u80a1
p4151
aV\u5927\u4f17\uff22\u80a1
p4152
aV\u795e\u5947B\u80a1
p4153
aV\u8001\u51e4\u7965\uff22
p4154
aV\u4e2d\u6bc5\u8fbeB
p4155
aV\u9e4f\u8d77\uff22\u80a1
p4156
aV\u6c2f\u78b1\uff22\u80a1
p4157
aV\u534e\u8c0aB\u80a1
p4158
aV\u6d77\u7acb\uff22\u80a1
p4159
aV\u91d1\u6865\uff22\u80a1
p4160
aV\u5916\u9ad8\uff22\u80a1
p4161
aV\u56fd\u65b0B\u80a1
p4162
aV\u9526\u6295\uff22\u80a1
p4163
aV\u4e2d\u8def\uff22\u80a1
p4164
aV\u51e4\u51f0B\u80a1
p4165
aV\u6d77\u6b23\uff22\u80a1
p4166
aV\u8000\u76ae\uff22\u80a1
p4167
aV\u7eff\u5eadB\u80a1
p4168
aV\u4e0a\u67f4\uff22\u80a1
p4169
aV*ST\u4e39\u79d1B
p4170
aV\u4e09\u6bdbB\u80a1
p4171
aV\u767e\u8054\uff22\u80a1
p4172
aV\u4e0a\u5de5\uff22\u80a1
p4173
aV\u673a\u7535\uff22\u80a1
p4174
aV\u5b9d\u4fe1\uff22
p4175
aV\u7269\u8d38\uff22\u80a1
p4176
aV\u4e34\u6e2fB\u80a1
p4177
aV\u9526\u65c5\uff22\u80a1
p4178
aV*ST\u6caa\u666eB
p4179
aV\u9646\u5bb6\uff22\u80a1
p4180
aV\u534e\u65b0\uff22\u80a1
p4181
aV\u9526\u6c5f\uff22\u80a1
p4182
aV\u9633\u6668\uff22\u80a1
p4183
aV\u9102\u8d44\uff22\u80a1
p4184
aV\u534e\u7535\uff22\u80a1
p4185
aV\u5929\u6d77B
p4186
aV\u6c47\u4e3dB
p4187
aV\u5927\u540d\u57ceB
p4188
aV\u4e1c\u4fe1\uff22\u80a1
p4189
aV\u9ec4\u5c71\uff22\u80a1
p4190
aV\u5f00\u5f00\uff22\u80a1
p4191
aV\u6d77\u63a7\uff22\u80a1
p4192
aV\u5929\u96c1B\u80a1
p4193
aV\u632f\u534e\uff22\u80a1
p4194
aV\u4f0a\u6cf0\uff22\u80a1
p4195
aV*ST\u5927\u5316B
p4196
aV\u9526\u6e2f\uff22\u80a1
p4197
aV\u51ef\u9a6c\uff22
p4198
aV\u6d77\u521bB\u80a1
p4199
aV\u4e1c\u8d1d\uff22\u80a1
p4200
aV\u51cc\u4e91\uff22\u80a1
p4201
aVPT\u91d1\u7530A
p4202
aV*ST\u77f3\u5316A
p4203
aVPT\u4e2d\u6d69A
p4204
aVST\u4e2d\u4fa8
p4205
aVST\u946b\u5149
p4206
aV*ST\u70ef\u78b3
p4207
aVPT\u5357\u6d0b
p4208
aVS*ST\u6258\u666e
p4209
aVST\u6d77\u6d0b
p4210
aV*ST\u5357\u534e
p4211
aVST\u94f6\u5c71
p4212
aVST\u5b8f\u4e1a
p4213
aV\u4e2d\u56fd\u56fd\u8d38
p4214
aV\u5357\u4eac\u9ad8\u79d1
p4215
aV\u957f\u6625\u7ecf\u5f00
p4216
aV\u5e02\u5317\u9ad8\u65b0
p4217
aV\u6d66\u4e1c\u91d1\u6865
p4218
aV\u5916\u9ad8\u6865
p4219
aV\u7535\u5b50\u57ce
p4220
aV\u82cf\u5dde\u9ad8\u65b0
p4221
aV\u5f20\u6c5f\u9ad8\u79d1
p4222
aV\u9ad8\u65b0\u53d1\u5c55
p4223
aV\u4e2d\u56fd\u8054\u901a
p4224
aV\u4fdd\u5343\u91cc
p4225
aV\u5eb7\u6b23\u65b0\u6750
p4226
aV\u540c\u65b9\u80a1\u4efd
p4227
aV\u6c38\u9f0e\u80a1\u4efd
p4228
aV\u6ce2\u5bfc\u80a1\u4efd
p4229
aV\u5927\u5510\u7535\u4fe1
p4230
aV\u822a\u5929\u4fe1\u606f
p4231
aV\u5927\u6052\u79d1\u6280
p4232
aV\u4ebf\u9633\u4fe1\u901a
p4233
aV\u5929\u901a\u80a1\u4efd
p4234
aV\u957f\u6c5f\u901a\u4fe1
p4235
aV\u56fd\u7535\u5357\u745e
p4236
aV\u534e\u80dc\u5929\u6210
p4237
aV\u91d1\u8bc1\u80a1\u4efd
p4238
aV\u535a\u901a\u80a1\u4efd
p4239
aV\u6e58\u90ae\u79d1\u6280
p4240
aV\u4fe1\u5a01\u96c6\u56e2
p4241
aV\u4ea8\u901a\u5149\u7535
p4242
aV\u70fd\u706b\u901a\u4fe1
p4243
aV\u4e2d\u5929\u79d1\u6280
p4244
aV\u4e2d\u56fd\u8f6f\u4ef6
p4245
aVST\u6167\u7403
p4246
aV\u56fd\u777f\u79d1\u6280
p4247
aV\u6052\u751f\u7535\u5b50
p4248
aV\u4fe1\u96c5\u8fbe
p4249
aV\u7528\u53cb\u7f51\u7edc
p4250
aV\u65b9\u6b63\u79d1\u6280
p4251
aV*ST\u6caa\u79d1
p4252
aV*ST\u4e2d\u5b89
p4253
aV\u822a\u5929\u901a\u4fe1
p4254
aV*ST\u4e0a\u666e
p4255
aV\u4e1c\u8f6f\u96c6\u56e2
p4256
aV\u4f73\u90fd\u79d1\u6280
p4257
aV\u5b9e\u8fbe\u96c6\u56e2
p4258
aV\u6d6a\u6f6e\u8f6f\u4ef6
p4259
aV\u4e2d\u7535\u5e7f\u901a
p4260
aV\u5357\u4eac\u718a\u732b
p4261
aV\u4e1c\u65b9\u901a\u4fe1
p4262
aV\u6d59\u5927\u7f51\u65b0
p4263
aV\u9e4f\u535a\u58eb
p4264
aV\u5b9d\u4fe1\u8f6f\u4ef6
p4265
aV\u534e\u4e1c\u7535\u8111
p4266
aV\u56db\u521b\u7535\u5b50
p4267
aV*ST\u667a\u6167
p4268
aV\u4eba\u6c11\u7f51
p4269
aV\u4e2d\u79d1\u66d9\u5149
p4270
aV\u5927\u8c6a\u79d1\u6280
p4271
aV\u5357\u5a01\u8f6f\u4ef6
p4272
aV\u6df1\u79d1\u6280
p4273
aV\u6df1\u6851\u8fbe\uff21
p4274
aV\u4e2d\u56fd\u5929\u6979
p4275
aV\u4e2d\u5174\u901a\u8baf
p4276
aV\u4e2d\u56fd\u957f\u57ce
p4277
aV\u7279\u53d1\u4fe1\u606f
p4278
aV\u6d77\u8679\u63a7\u80a1
p4279
aV\u534e\u91d1\u8d44\u672c
p4280
aV\u822a\u5929\u53d1\u5c55
p4281
aV\u795e\u5dde\u4fe1\u606f
p4282
aV\u70fd\u706b\u7535\u5b50
p4283
aV\u6c47\u6e90\u901a\u4fe1
p4284
aV\u89c6\u89c9\u4e2d\u56fd
p4285
aV\u4eac\u84dd\u79d1\u6280
p4286
aV\u957f\u57ce\u4fe1\u606f
p4287
aV*ST\u521b\u667a
p4288
aV\u56db\u5ddd\u4e5d\u6d32
p4289
aV*ST\u708e\u9ec4
p4290
aV\u946b\u8302\u79d1\u6280
p4291
aV\u9ad8\u9e3f\u80a1\u4efd
p4292
aV\u6b22\u745e\u4e16\u7eaa
p4293
aV\u7d2b\u5149\u80a1\u4efd
p4294
aV\u5357\u5929\u4fe1\u606f
p4295
aV\u4e2d\u79d1\u4e09\u73af
p4296
aV\u6d6a\u6f6e\u4fe1\u606f
p4297
aV\u65b0 \u5927 \u9646
p4298
aV\u4e1c\u4fe1\u548c\u5e73
p4299
aV\u5206\u4f17\u4f20\u5a92
p4300
aV\u540c\u6d32\u7535\u5b50
p4301
aV\u8fdc\u5149\u8f6f\u4ef6
p4302
aV\u4e1c\u534e\u8f6f\u4ef6
p4303
aV\u8f6f\u63a7\u80a1\u4efd
p4304
aV\u65b0 \u6d77 \u5b9c
p4305
aV\u91d1\u667a\u79d1\u6280
p4306
aV\u56fd\u8109\u79d1\u6280
p4307
aV\u751f \u610f \u5b9d
p4308
aV\u4e09\u7ef4\u901a\u4fe1
p4309
aV\u5317\u7eac\u79d1\u6280
p4310
aV\u5317\u6597\u661f\u901a
p4311
aV\u5e7f\u7535\u8fd0\u901a
p4312
aV\u77f3\u57fa\u4fe1\u606f
p4313
aV\u8fdc \u671b \u8c37
p4314
aV\u6e38\u65cf\u7f51\u7edc
p4315
aV\u5fa1\u94f6\u80a1\u4efd
p4316
aV\u7eb3\u601d\u8fbe
p4317
aV\u6d77\u5f97\u63a7\u5236
p4318
aV\u6b66\u6c49\u51e1\u8c37
p4319
aV\u4e8c\u4e09\u56db\u4e94
p4320
aV\u79d1\u5927\u8baf\u98de
p4321
aV\u5965\u7ef4\u901a\u4fe1
p4322
aV\u542f\u660e\u4fe1\u606f
p4323
aV\u4e1c\u65b9\u91d1\u94b0
p4324
aV\u7f8e\u5c14\u96c5
p4325
aV\u6d6a\u838e\u80a1\u4efd
p4326
aV\u96c5\u6208\u5c14
p4327
aV\u5706\u901a\u901f\u9012
p4328
aV\u5f00\u5f00\u5b9e\u4e1a
p4329
aV\u9102\u5c14\u591a\u65af
p4330
aV\u6d77\u6f9c\u4e4b\u5bb6
p4331
aV\u7ea2\u8c46\u80a1\u4efd
p4332
aV\u745e\u8d1d\u5361
p4333
aV\u8001\u51e4\u7965
p4334
aV\u6749\u6749\u80a1\u4efd
p4335
aV\u4e5d\u7267\u738b
p4336
aV\u9645\u534e\u96c6\u56e2
p4337
aV\u5965\u5eb7\u56fd\u9645
p4338
aV\u7ef4\u683c\u5a1c\u4e1d
p4339
aV\u8d35\u4eba\u9e1f
p4340
aV\u6b4c\u529b\u601d
p4341
aV\u4f1f\u661f\u80a1\u4efd
p4342
aV\u4e03 \u5339 \u72fc
p4343
aV\u8054\u521b\u7535\u5b50
p4344
aV\u7f8e\u5e74\u5065\u5eb7
p4345
aV\u6d54\u5174\u80a1\u4efd
p4346
aV\u62a5 \u559c \u9e1f
p4347
aV\u5965\u7279\u4f73
p4348
aV\u7f8e\u90a6\u670d\u9970
p4349
aV\u661f\u671f\u516d
p4350
aV\u7f57\u83b1\u751f\u6d3b
p4351
aV\u5bcc\u5b89\u5a1c
p4352
aV\u6f6e\u5b8f\u57fa
p4353
aV\u68a6\u6d01\u80a1\u4efd
p4354
aV\u51ef\u6492\u6587\u5316
p4355
aV\u5e0c\u52aa\u5c14
p4356
aV\u5609\u9e9f\u6770
p4357
aV\u534e\u65af\u80a1\u4efd
p4358
aV\u641c\u4e8e\u7279
p4359
aV\u607a\u82f1\u7f51\u7edc
p4360
aV\u68ee\u9a6c\u670d\u9970
p4361
aV\u6b65\u68ee\u80a1\u4efd
p4362
aV\u660e\u724c\u73e0\u5b9d
p4363
aV\u6717\u59ff\u80a1\u4efd
p4364
aV\u68d2\u6770\u80a1\u4efd
p4365
aV\u8de8\u5883\u901a
p4366
aV\u6469\u767b\u5927\u9053
p4367
aV\u5174\u4e1a\u79d1\u6280
p4368
aV\u4e54\u6cbb\u767d
p4369
aV\u8403\u534e\u73e0\u5b9d
p4370
aV\u7231\u8fea\u5c14
p4371
aV\u63a2\u8def\u8005
p4372
aV\u535a\u4fe1\u80a1\u4efd
p4373
aV\u822a\u5929\u673a\u7535
p4374
aV\u4e0a\u6d77\u8d1d\u5cad
p4375
aV\u751f\u76ca\u79d1\u6280
p4376
aV\u798f\u65e5\u7535\u5b50
p4377
aV\u6709\u7814\u65b0\u6750
p4378
aV\u5b89\u5f69\u9ad8\u79d1
p4379
aV\u94dc\u5cf0\u7535\u5b50
p4380
aV\u65ed\u5149\u80a1\u4efd
p4381
aV\u7cbe\u4f26\u7535\u5b50
p4382
aV\u534e\u5fae\u7535\u5b50
p4383
aV\u8054\u521b\u5149\u7535
p4384
aV*ST\u6d77\u6da6
p4385
aV\u58eb\u5170\u5fae
p4386
aV\u79d1\u529b\u8fdc
p4387
aV\u4ebf\u6676\u5149\u7535
p4388
aV\u6cd5\u62c9\u7535\u5b50
p4389
aV\u957f\u7535\u79d1\u6280
p4390
aV\u4e91\u8d5b\u667a\u8054
p4391
aV\u592a\u6781\u5b9e\u4e1a
p4392
aV\u4e09\u5b89\u5149\u7535
p4393
aV\u5f69\u8679\u80a1\u4efd
p4394
aV*ST\u5927\u63a7
p4395
aV*ST\u5b8f\u76db
p4396
aV\u5317\u77ff\u79d1\u6280
p4397
aV\u9686\u57fa\u80a1\u4efd
p4398
aV\u73af\u65ed\u7535\u5b50
p4399
aV\u4eac\u8fd0\u901a
p4400
aV\u6676\u65b9\u79d1\u6280
p4401
aV\u5171\u8fdb\u80a1\u4efd
p4402
aV\u4f9d\u987f\u7535\u5b50
p4403
aV\u706b\u70ac\u7535\u5b50
p4404
aV\u6df1\u534e\u53d1\uff21
p4405
aV\u6df1\u5929\u9a6c\uff21
p4406
aV\u6df1 \u8d5b \u683c
p4407
aV\u534e\u63a7\u8d5b\u683c
p4408
aV\u4e1c\u65ed\u5149\u7535
p4409
aV\u534e\u6620\u79d1\u6280
p4410
aV\u98ce\u534e\u9ad8\u79d1
p4411
aV\u76c8\u65b9\u5fae
p4412
aV\u4eac\u4e1c\u65b9\uff21
p4413
aV\u534e\u4e1c\u79d1\u6280
p4414
aV\u632f\u534e\u79d1\u6280
p4415
aV\u521b\u7ef4\u6570\u5b57
p4416
aV\u8d85\u58f0\u7535\u5b50
p4417
aV\u822a\u5929\u7535\u5668
p4418
aV\u56fd\u5149\u7535\u5668
p4419
aV\u7d2b\u5149\u56fd\u82af
p4420
aV\u5f97\u6da6\u7535\u5b50
p4421
aV\u6a2a\u5e97\u4e1c\u78c1
p4422
aV\u4e2d\u94a2\u5929\u6e90
p4423
aV\u82cf\u5dde\u56fa\u951d
p4424
aV\u6052\u5b9d\u80a1\u4efd
p4425
aV\u83b1\u5b9d\u9ad8\u79d1
p4426
aV\u5eb7\u5f3a\u7535\u5b50
p4427
aV\u4e2d\u73af\u80a1\u4efd
p4428
aV*ST\u666e\u6797
p4429
aV\u9ea6\u8fbe\u6570\u5b57
p4430
aV\u987a\u7edc\u7535\u5b50
p4431
aV\u62d3\u90a6\u80a1\u4efd
p4432
aV\u8d24\u4e30\u63a7\u80a1
p4433
aV\u901a\u5bcc\u5fae\u7535
p4434
aV\u4e2d\u822a\u5149\u7535
p4435
aV\u534e\u5929\u79d1\u6280
p4436
aV\u5df4\u58eb\u5728\u7ebf
p4437
aV\u5229\u8fbe\u5149\u7535
p4438
aV\u4e1c\u6676\u7535\u5b50
p4439
aV\u5408\u529b\u6cf0
p4440
aV\u62d3\u65e5\u65b0\u80fd
p4441
aV\u798f\u6676\u79d1\u6280
p4442
aV\u6b4c\u5c14\u80a1\u4efd
p4443
aV\u6c34\u6676\u5149\u7535
p4444
aV\u8d85\u534e\u79d1\u6280
p4445
aV\u5b87\u987a\u7535\u5b50
p4446
aV\u5317\u65b9\u534e\u521b
p4447
aV\u65b0\u4e9a\u5236\u7a0b
p4448
aV\u5357\u6d0b\u79d1\u6280
p4449
aV\u548c\u800c\u6cf0
p4450
aV\u80dc\u5229\u7cbe\u5bc6
p4451
aV\u5174\u68ee\u79d1\u6280
p4452
aV\u56fd\u661f\u5149\u7535
p4453
aV\u6b27\u83f2\u79d1\u6280
p4454
aV\u6caa\u7535\u80a1\u4efd
p4455
aV\u7acb\u8baf\u7cbe\u5bc6
p4456
aV\u6c5f\u6d77\u80a1\u4efd
p4457
aV*ST\u5f18\u9ad8
p4458
aV\u534f\u946b\u96c6\u6210
p4459
aV\u8fbe\u534e\u667a\u80fd
p4460
aV\u4e2d\u4eac\u7535\u5b50
p4461
aV\u5965\u62d3\u7535\u5b50
p4462
aV\u6c5f\u7c89\u78c1\u6750
p4463
aV\u4e39\u90a6\u79d1\u6280
p4464
aV\u91d1\u5b89\u56fd\u7eaa
p4465
aV\u52e4\u4e0a\u80a1\u4efd
p4466
aV\u4e07\u6da6\u79d1\u6280
p4467
aV\u5171\u8fbe\u7535\u58f0
p4468
aV\u6d77\u6d0b\u738b
p4469
aV\u597d\u5229\u6765
p4470
aV\u6728\u6797\u68ee
p4471
aV\u4ebf\u7eac\u9502\u80fd
p4472
aV\u534e\u80fd\u56fd\u9645
p4473
aV\u4e0a\u6d77\u7535\u529b
p4474
aV\u6d59\u80fd\u7535\u529b
p4475
aV\u534e\u7535\u56fd\u9645
p4476
aV\u5e7f\u5dde\u53d1\u5c55
p4477
aV\u660e\u661f\u7535\u529b
p4478
aV\u8bfa\u5fb7\u80a1\u4efd
p4479
aV\u4e09\u5ce1\u6c34\u5229
p4480
aV\u5cb7\u6c5f\u6c34\u7535
p4481
aV\u6842\u51a0\u7535\u529b
p4482
aV\u6842\u4e1c\u7535\u529b
p4483
aV\u91d1\u5c71\u80a1\u4efd
p4484
aV\u6daa\u9675\u7535\u529b
p4485
aV\u798f\u80fd\u80a1\u4efd
p4486
aV\u897f\u660c\u7535\u529b
p4487
aV\u5929\u5bcc\u80fd\u6e90
p4488
aV\u4eac\u80fd\u7535\u529b
p4489
aV\u7533\u80fd\u80a1\u4efd
p4490
aV\u4e50\u5c71\u7535\u529b
p4491
aV\u5ddd\u6295\u80fd\u6e90
p4492
aV\u534e\u7535\u80fd\u6e90
p4493
aV\u534e\u94f6\u7535\u529b
p4494
aV\u7965\u9f99\u7535\u4e1a
p4495
aV\u901a\u5b9d\u80fd\u6e90
p4496
aV\u56fd\u7535\u7535\u529b
p4497
aV\u5185\u8499\u534e\u7535
p4498
aV\u54c8\u6295\u80a1\u4efd
p4499
aV\u6885\u96c1\u5409\u7965
p4500
aV\u667a\u6167\u80fd\u6e90
p4501
aV\u56fd\u6295\u7535\u529b
p4502
aV\u957f\u6c5f\u7535\u529b
p4503
aV\u90f4\u7535\u56fd\u9645
p4504
aV\u5e7f\u5b89\u7231\u4f17
p4505
aV\u6587\u5c71\u7535\u529b
p4506
aV\u8282\u80fd\u98ce\u7535
p4507
aV\u5927\u5510\u53d1\u7535
p4508
aV\u6df1\u5733\u80fd\u6e90
p4509
aV\u6df1\u5357\u7535A
p4510
aV\u7a57\u6052\u8fd0\uff21
p4511
aV\u7ca4\u7535\u529b\uff21
p4512
aV\u7696\u80fd\u7535\u529b
p4513
aV\u5efa\u6295\u80fd\u6e90
p4514
aV\u97f6\u80fd\u80a1\u4efd
p4515
aV\u91d1\u9a6c\u96c6\u56e2
p4516
aV\u5b9d\u65b0\u80fd\u6e90
p4517
aV\u65b0\u80fd\u6cf0\u5c71
p4518
aV\u6e56\u5357\u53d1\u5c55
p4519
aV\u6f33\u6cfd\u7535\u529b
p4520
aV\u7518\u8083\u7535\u6295
p4521
aV\u94f6\u661f\u80fd\u6e90
p4522
aV\u5409\u7535\u80a1\u4efd
p4523
aV\u6e56\u5317\u80fd\u6e90
p4524
aV\u8d63\u80fd\u80a1\u4efd
p4525
aV\u51ef\u8fea\u751f\u6001
p4526
aV\u4e1c\u65b9\u80fd\u6e90
p4527
aV\u957f\u6e90\u7535\u529b
p4528
aV\u95fd\u4e1c\u7535\u529b
p4529
aV\u8c6b\u80fd\u63a7\u80a1
p4530
aV\u9ed4\u6e90\u7535\u529b
p4531
aV\u5bcc\u6625\u73af\u4fdd
p4532
aV\u777f\u5eb7\u80a1\u4efd
p4533
aV\u9c81\u4ebf\u901a
p4534
aV\u4e1c\u98ce\u6c7d\u8f66
p4535
aV\u5b87\u901a\u5ba2\u8f66
p4536
aV\u4e1c\u98ce\u79d1\u6280
p4537
aV\u6613\u89c1\u80a1\u4efd
p4538
aV\u4e0a\u6c7d\u96c6\u56e2
p4539
aV\u957f\u6625\u4e00\u4e1c
p4540
aV\u798f\u7530\u6c7d\u8f66
p4541
aV\u4e1c\u5b89\u52a8\u529b
p4542
aVS\u4f73\u901a
p4543
aV\u4e9a\u661f\u5ba2\u8f66
p4544
aV\u66d9\u5149\u80a1\u4efd
p4545
aV\u56fd\u673a\u6c7d\u8f66
p4546
aV\u534e\u83f1\u661f\u9a6c
p4547
aV\u6c5f\u6dee\u6c7d\u8f66
p4548
aV\u98ce\u795e\u80a1\u4efd
p4549
aV\u51cc\u4e91\u80a1\u4efd
p4550
aV\u822a\u5929\u6668\u5149
p4551
aV\u8d35\u822a\u80a1\u4efd
p4552
aV\u91d1\u676f\u6c7d\u8f66
p4553
aV\u534e\u8c0a\u96c6\u56e2
p4554
aV\u7533\u534e\u63a7\u80a1
p4555
aV\u798f\u8000\u73bb\u7483
p4556
aV\u4ea4\u8fd0\u80a1\u4efd
p4557
aV\u91d1\u9f99\u6c7d\u8f66
p4558
aV\u6e56\u5357\u5929\u96c1
p4559
aV\u5747\u80dc\u7535\u5b50
p4560
aV\u6587\u6295\u63a7\u80a1
p4561
aV\u534e\u57df\u6c7d\u8f66
p4562
aV\u4e00\u6c7d\u5bcc\u7ef4
p4563
aV\u4e2d\u822a\u9ed1\u8c79
p4564
aV\u6e24\u6d77\u6d3b\u585e
p4565
aV\u5e7f\u6c7d\u957f\u4e30
p4566
aV\u8d5b\u8f6e\u91d1\u5b87
p4567
aV\u5e7f\u6c7d\u96c6\u56e2
p4568
aV\u5e9e\u5927\u96c6\u56e2
p4569
aV\u957f\u57ce\u6c7d\u8f66
p4570
aV\u62d3\u666e\u96c6\u56e2
p4571
aV\u661f\u5b87\u80a1\u4efd
p4572
aV\u4e2d\u56fd\u6c7d\u7814
p4573
aV\u8054\u660e\u80a1\u4efd
p4574
aV\u5317\u7279\u79d1\u6280
p4575
aV\u817e\u9f99\u80a1\u4efd
p4576
aV\u798f\u8fbe\u80a1\u4efd
p4577
aV\u534e\u61cb\u79d1\u6280
p4578
aV\u5b81\u6ce2\u9ad8\u53d1
p4579
aV\u7ee7\u5cf0\u80a1\u4efd
p4580
aV\u7279 \u529b\uff21
p4581
aV\u5bcc\u5965\u80a1\u4efd
p4582
aV\u6f4d\u67f4\u52a8\u529b
p4583
aV\u6c5f\u94c3\u6c7d\u8f66
p4584
aV\u4e07\u5411\u94b1\u6f6e
p4585
aV\u6d77\u9a6c\u6c7d\u8f66
p4586
aV\u5a01\u5b5a\u9ad8\u79d1
p4587
aV\u9ed4\u8f6e\u80ce\uff21
p4588
aV\u9752\u5c9b\u53cc\u661f
p4589
aV\u6052\u7acb\u5b9e\u4e1a
p4590
aV\u957f\u5b89\u6c7d\u8f66
p4591
aV\u6a21\u5851\u79d1\u6280
p4592
aV\u8d1d\u745e\u57fa\u56e0
p4593
aV\u6f33\u5dde\u53d1\u5c55
p4594
aV\u6d69\u7269\u80a1\u4efd
p4595
aV\u65af\u592a\u5c14
p4596
aV\u4e00\u6c7d\u8f7f\u8f66
p4597
aV\u5b89\u51ef\u5ba2\u8f66
p4598
aV\u4e00\u6c7d\u590f\u5229
p4599
aV\u4e2d\u56fd\u91cd\u6c7d
p4600
aV\u4e2d\u901a\u5ba2\u8f66
p4601
aV\u4e2d\u822a\u673a\u7535
p4602
aV\u5de8\u8f6e\u667a\u80fd
p4603
aV\u5b81\u6ce2\u534e\u7fd4
p4604
aV\u4e07\u4e30\u5965\u5a01
p4605
aV\u94f6\u8f6e\u80a1\u4efd
p4606
aV\u6210\u98de\u96c6\u6210
p4607
aV\u7279 \u5c14 \u4f73
p4608
aV\u897f\u4eea\u80a1\u4efd
p4609
aV\u5929\u6da6\u66f2\u8f74
p4610
aV\u4e9a\u592a\u80a1\u4efd
p4611
aV\u5174\u6c11\u667a\u901a
p4612
aV\u9686\u57fa\u673a\u68b0
p4613
aV\u8fdc\u4e1c\u4f20\u52a8
p4614
aV\u4e07\u91cc\u626c
p4615
aV\u677e\u829d\u80a1\u4efd
p4616
aV\u91d1\u56fa\u80a1\u4efd
p4617
aV\u5929\u6c7d\u6a21
p4618
aV\u897f\u6cf5\u80a1\u4efd
p4619
aV\u4e09\u4e03\u4e92\u5a31
p4620
aV\u4e07\u5b89\u79d1\u6280
p4621
aV\u65e5\u4e0a\u96c6\u56e2
p4622
aV\u6bd4\u4e9a\u8fea
p4623
aV\u4e16\u7eaa\u534e\u901a
p4624
aV\u4e9a\u590f\u6c7d\u8f66
p4625
aV\u5149\u542f\u6280\u672f
p4626
aV\u4eac\u5a01\u80a1\u4efd
p4627
aV\u6d59\u6c5f\u4e16\u5b9d
p4628
aV\u5149\u6d0b\u80a1\u4efd
p4629
aV\u767b\u4e91\u80a1\u4efd
p4630
aV\u8dc3\u5cad\u80a1\u4efd
p4631
aV\u53cc\u6797\u80a1\u4efd
p4632
aV\u9e3f\u7279\u7cbe\u5bc6
p4633
aV\u7cbe\u953b\u79d1\u6280
p4634
aV\u7f8e\u514b\u5bb6\u5c45
p4635
aV\u5b9c\u534e\u751f\u6d3b
p4636
aV\u559c\u4e34\u95e8
p4637
aV\u6c38\u827a\u80a1\u4efd
p4638
aV\u66f2\u7f8e\u5bb6\u5c45
p4639
aV\u597d\u83b1\u5ba2
p4640
aV\u5927\u4e9a\u5723\u8c61
p4641
aV\u6d77\u9e25\u536b\u6d74
p4642
aV\u97f5\u8fbe\u80a1\u4efd
p4643
aV\u5a01\u534e\u80a1\u4efd
p4644
aV\u5347\u8fbe\u6797\u4e1a
p4645
aV\u6d59\u6c5f\u6c38\u5f3a
p4646
aV\u7d22\u83f2\u4e9a
p4647
aV\u5fb7\u5c14\u672a\u6765
p4648
aV\u53cb\u90a6\u540a\u9876
p4649
aV\u6613\u5c1a\u5c55\u793a
p4650
aV\u4e91\u5929\u5316
p4651
aV\u701a\u53f6\u80a1\u4efd
p4652
aV\u8d64\u5929\u5316
p4653
aV\u6ca7\u5dde\u5927\u5316
p4654
aV\u6c5f\u5c71\u80a1\u4efd
p4655
aV*ST\u67f3\u5316
p4656
aV\u534e\u9c81\u6052\u5347
p4657
aV\u516d\u56fd\u5316\u5de5
p4658
aV\u626c\u519c\u5316\u5de5
p4659
aV\u56fd\u53d1\u80a1\u4efd
p4660
aV\u65b0\u5b89\u80a1\u4efd
p4661
aV\u9633\u7164\u5316\u5de5
p4662
aV\u9c81\u5317\u5316\u5de5
p4663
aV\u6e56\u5357\u6d77\u5229
p4664
aV\u94b1\u6c5f\u751f\u5316
p4665
aV\u65b0\u5965\u80a1\u4efd
p4666
aV\u5e7f\u4fe1\u80a1\u4efd
p4667
aV*ST\u5ddd\u5316
p4668
aV\u6e56\u5317\u5b9c\u5316
p4669
aV\u7ea2 \u592a \u9633
p4670
aV\u6c99\u9686\u8fbe\uff21
p4671
aV\u76d0\u6e56\u96c6\u56e2
p4672
aV\u56db\u5ddd\u7f8e\u4e30
p4673
aV\u76d0\u6e56\u80a1\u4efd
p4674
aV\u9c81\u897f\u5316\u5de5
p4675
aV\u65b0\u6d0b\u4e30
p4676
aV*ST\u5929\u5316
p4677
aV*ST\u5efa\u5cf0
p4678
aV*ST\u6cb3\u5316
p4679
aV\u534e\u90a6\u5065\u5eb7
p4680
aV\u534e\u4fe1\u56fd\u9645
p4681
aV\u5929\u6da6\u6570\u5a31
p4682
aV\u82ad\u7530\u80a1\u4efd
p4683
aV\u8bfa \u666e \u4fe1
p4684
aV\u5229\u5c14\u5316\u5b66
p4685
aV\u534e\u660c\u5316\u5de5
p4686
aV\u957f\u9752\u80a1\u4efd
p4687
aV\u91d1\u6b63\u5927
p4688
aV\u8f89\u4e30\u80a1\u4efd
p4689
aV\u84dd\u4e30\u751f\u5316
p4690
aV\u53f8\u5c14\u7279
p4691
aV\u4e91\u56fe\u63a7\u80a1
p4692
aV\u53f2\u4e39\u5229
p4693
aV\u5229\u6c11\u80a1\u4efd
p4694
aV\u56fd\u5149\u80a1\u4efd
p4695
aV\u96c5\u672c\u5316\u5b66
p4696
aV\u9ec4\u5c71\u65c5\u6e38
p4697
aV\u4e2d\u9752\u65c5
p4698
aV\u9996\u65c5\u9152\u5e97
p4699
aV\u56fd\u65c5\u8054\u5408
p4700
aV\u6d77\u822a\u521b\u65b0
p4701
aV\u5927\u8fde\u5723\u4e9a
p4702
aV\u53f7\u767e\u63a7\u80a1
p4703
aV\u66f2\u6c5f\u6587\u65c5
p4704
aV\u897f\u85cf\u65c5\u6e38
p4705
aV\u9526\u6c5f\u80a1\u4efd
p4706
aV\u91d1\u9675\u996d\u5e97
p4707
aV\u4e2d\u56fd\u56fd\u65c5
p4708
aV\u957f\u767d\u5c71
p4709
aV\u4e5d\u534e\u65c5\u6e38
p4710
aV\u5317\u90e8\u6e7e\u65c5
p4711
aV\u5168\u65b0\u597d
p4712
aV\u65b0\u90fd\u9000
p4713
aV\u534e\u4fa8\u57ce\uff21
p4714
aV\u534e\u5929\u9152\u5e97
p4715
aV\u5f20\u5bb6\u754c
p4716
aV\u5cad\u5357\u63a7\u80a1
p4717
aV\u897f\u5b89\u65c5\u6e38
p4718
aV*ST\u4e1c\u6d77A
p4719
aV\u897f\u5b89\u996e\u98df
p4720
aV\u5317\u4eac\u6587\u5316
p4721
aV\u5ce8\u7709\u5c71\uff21
p4722
aV\u6842\u6797\u65c5\u6e38
p4723
aV\u4e3d\u6c5f\u65c5\u6e38
p4724
aV\u4e91\u5357\u65c5\u6e38
p4725
aV\u4e09\u7279\u7d22\u9053
p4726
aV\u5168 \u805a \u5fb7
p4727
aV*ST\u4e91\u7f51
p4728
aV\u5de8\u4eba\u7f51\u7edc
p4729
aV\u4f17\u4fe1\u65c5\u6e38
p4730
aV\u5b8b\u57ce\u6f14\u827a
p4731
aV\u817e\u90a6\u56fd\u9645
p4732
aV\u4e2d\u518d\u8d44\u73af
p4733
aV\u65b0\u529b\u91d1\u878d
p4734
aV*ST\u9752\u677e
p4735
aV\u5b81\u590f\u5efa\u6750
p4736
aV\u72ee\u5934\u80a1\u4efd
p4737
aV\u592a\u884c\u6c34\u6ce5
p4738
aV\u6d77\u87ba\u6c34\u6ce5
p4739
aV\u5c16\u5cf0\u96c6\u56e2
p4740
aV\u56db\u5ddd\u91d1\u9876
p4741
aV\u7941\u8fde\u5c71
p4742
aV\u534e\u65b0\u6c34\u6ce5
p4743
aV\u798f\u5efa\u6c34\u6ce5
p4744
aV\u4e9a\u6cf0\u96c6\u56e2
p4745
aV\u535a\u95fb\u79d1\u6280
p4746
aV\u91d1\u9685\u80a1\u4efd
p4747
aV\u5180\u4e1c\u6c34\u6ce5
p4748
aV\u91d1\u5706\u80a1\u4efd
p4749
aV\u4e0a\u5cf0\u6c34\u6ce5
p4750
aV\u4e07\u5e74\u9752
p4751
aV\u5929\u5c71\u80a1\u4efd
p4752
aV\u540c\u529b\u6c34\u6ce5
p4753
aV\u56db\u5ddd\u53cc\u9a6c
p4754
aV\u5854\u724c\u96c6\u56e2
p4755
aV\u897f\u90e8\u5efa\u8bbe
p4756
aV\u67d8\u4e2d\u80a1\u4efd
p4757
aV\u827e\u683c\u62c9\u65af
p4758
aV\u4e94\u77ff\u53d1\u5c55
p4759
aV\u6d59\u6c5f\u4e1c\u65b9
p4760
aV\u5f18\u4e1a\u80a1\u4efd
p4761
aV\u5efa\u53d1\u80a1\u4efd
p4762
aV\u65f6\u4ee3\u4e07\u6052
p4763
aVST\u6210\u57ce
p4764
aV\u5357\u7eba\u80a1\u4efd
p4765
aV\u4e1c\u65b9\u521b\u4e1a
p4766
aV\u6c5f\u82cf\u821c\u5929
p4767
aV\u5e7f\u4e1c\u660e\u73e0
p4768
aV\u4e2d\u5316\u56fd\u9645
p4769
aV\u6c47\u901a\u80fd\u6e90
p4770
aV\u7269\u4ea7\u4e2d\u5927
p4771
aV\u8fbd\u5b81\u6210\u5927
p4772
aV\u53a6\u95e8\u56fd\u8d38
p4773
aV\u4e0a\u6d77\u7269\u8d38
p4774
aV\u5170\u751f\u80a1\u4efd
p4775
aV\u6c47\u9e3f\u96c6\u56e2
p4776
aV\u4e2d\u6210\u80a1\u4efd
p4777
aV\u8fdc\u5927\u63a7\u80a1
p4778
aV\u6c5f\u82cf\u56fd\u6cf0
p4779
aV\u6797\u6d77\u80a1\u4efd
p4780
aV*ST\u5609\u9675
p4781
aV\u529b\u5e06\u80a1\u4efd
p4782
aV\u9686\u946b\u901a\u7528
p4783
aV\u94b1\u6c5f\u6469\u6258
p4784
aV\u5b97\u7533\u52a8\u529b
p4785
aV\u7d2b\u6c5f\u4f01\u4e1a
p4786
aV\u754c\u9f99\u5b9e\u4e1a
p4787
aV\u535a\u745e\u4f20\u64ad
p4788
aV\u4e1c\u98ce\u80a1\u4efd
p4789
aV\u9f99\u97f5\u80a1\u4efd
p4790
aV*ST\u4e2d\u5bcc
p4791
aV\u5f53\u4ee3\u4e1c\u65b9
p4792
aV\u9655\u897f\u91d1\u53f6
p4793
aV\u4e1c\u6e2f\u80a1\u4efd
p4794
aV\u52b2\u5609\u80a1\u4efd
p4795
aV\u5408\u5174\u5305\u88c5
p4796
aV\u9e3f\u535a\u80a1\u4efd
p4797
aV\u4e3d\u9e4f\u80a1\u4efd
p4798
aV\u7701\u5e7f\u80a1\u4efd
p4799
aV\u76db\u901a\u80a1\u4efd
p4800
aV\u5965\u745e\u91d1
p4801
aV\u6607\u5174\u80a1\u4efd
p4802
aV\u4e07\u987a\u80a1\u4efd
p4803
aV\u84dd\u8272\u5149\u6807
p4804
aV\u534e\u8c0a\u5609\u4fe1
p4805
aV\u6d77\u4fe1\u7535\u5668
p4806
aV\u9633\u5149\u7167\u660e
p4807
aV\u6fb3\u67ef\u739b
p4808
aV\u9752\u5c9b\u6d77\u5c14
p4809
aV\u56db\u5ddd\u957f\u8679
p4810
aV\u6625\u5170\u80a1\u4efd
p4811
aV\u53a6\u534e\u7535\u5b50
p4812
aV\u60e0\u800c\u6d66
p4813
aV\u65e5\u51fa\u4e1c\u65b9
p4814
aV\u7acb\u9738\u80a1\u4efd
p4815
aV\u6df1\u5eb7\u4f73\uff21
p4816
aVTCL \u96c6\u56e2
p4817
aV\u7f8e\u7684\u96c6\u56e2
p4818
aV\u5c0f\u5929\u9e45\uff21
p4819
aV\u7f8e\u83f1\u7535\u5668
p4820
aV\u7f8e\u7684\u7535\u5668
p4821
aV\u4e07 \u5bb6 \u4e50
p4822
aV\u4f5b\u5c71\u7167\u660e
p4823
aV\u683c\u529b\u7535\u5668
p4824
aV\u6d77\u4fe1\u79d1\u9f99
p4825
aV\u5fb7\u8c6a\u6da6\u8fbe
p4826
aV\u82cf \u6cca \u5c14
p4827
aV\u534e\u5e1d\u80a1\u4efd
p4828
aV\u96ea \u83b1 \u7279
p4829
aV\u4e5d\u9633\u80a1\u4efd
p4830
aV\u5fb7\u5965\u901a\u822a
p4831
aV\u4e2d\u79d1\u65b0\u6750
p4832
aV\u7231\u4ed5\u8fbe
p4833
aV\u5146\u9a70\u80a1\u4efd
p4834
aV*ST\u5723\u83b1
p4835
aV\u8001\u677f\u7535\u5668
p4836
aV\u4e07\u548c\u7535\u6c14
p4837
aV\u5965\u9a6c\u7535\u5668
p4838
aV\u6d59\u6c5f\u7f8e\u5927
p4839
aV\u594b\u8fbe\u79d1\u6280
p4840
aV\u65b0\u5b9d\u80a1\u4efd
p4841
aV\u91d1\u83b1\u7279
p4842
aV\u7efc\u5408\u884c\u4e1a
p4843
aV\u7efc\u5408\u884c\u4e1a
p4844
aV\u7efc\u5408\u884c\u4e1a
p4845
aV\u7efc\u5408\u884c\u4e1a
p4846
aV\u7efc\u5408\u884c\u4e1a
p4847
aV\u7efc\u5408\u884c\u4e1a
p4848
aV\u7efc\u5408\u884c\u4e1a
p4849
aV\u7efc\u5408\u884c\u4e1a
p4850
aV\u7efc\u5408\u884c\u4e1a
p4851
aV\u7efc\u5408\u884c\u4e1a
p4852
aV\u7efc\u5408\u884c\u4e1a
p4853
aV\u7efc\u5408\u884c\u4e1a
p4854
aV\u7efc\u5408\u884c\u4e1a
p4855
aV\u7efc\u5408\u884c\u4e1a
p4856
aV\u7efc\u5408\u884c\u4e1a
p4857
aV\u7efc\u5408\u884c\u4e1a
p4858
aV\u7efc\u5408\u884c\u4e1a
p4859
aV\u7efc\u5408\u884c\u4e1a
p4860
aV\u7efc\u5408\u884c\u4e1a
p4861
aV\u7efc\u5408\u884c\u4e1a
p4862
aV\u7efc\u5408\u884c\u4e1a
p4863
aV\u7efc\u5408\u884c\u4e1a
p4864
aV\u7efc\u5408\u884c\u4e1a
p4865
aV\u7efc\u5408\u884c\u4e1a
p4866
aV\u7efc\u5408\u884c\u4e1a
p4867
aV\u7efc\u5408\u884c\u4e1a
p4868
aV\u7efc\u5408\u884c\u4e1a
p4869
aV\u7efc\u5408\u884c\u4e1a
p4870
aV\u7efc\u5408\u884c\u4e1a
p4871
aV\u7efc\u5408\u884c\u4e1a
p4872
aV\u7efc\u5408\u884c\u4e1a
p4873
aV\u7efc\u5408\u884c\u4e1a
p4874
aV\u7efc\u5408\u884c\u4e1a
p4875
aV\u516c\u8def\u6865\u6881
p4876
aV\u516c\u8def\u6865\u6881
p4877
aV\u516c\u8def\u6865\u6881
p4878
aV\u516c\u8def\u6865\u6881
p4879
aV\u516c\u8def\u6865\u6881
p4880
aV\u516c\u8def\u6865\u6881
p4881
aV\u516c\u8def\u6865\u6881
p4882
aV\u516c\u8def\u6865\u6881
p4883
aV\u516c\u8def\u6865\u6881
p4884
aV\u516c\u8def\u6865\u6881
p4885
aV\u516c\u8def\u6865\u6881
p4886
aV\u516c\u8def\u6865\u6881
p4887
aV\u516c\u8def\u6865\u6881
p4888
aV\u516c\u8def\u6865\u6881
p4889
aV\u516c\u8def\u6865\u6881
p4890
aV\u516c\u8def\u6865\u6881
p4891
aV\u516c\u8def\u6865\u6881
p4892
aV\u516c\u8def\u6865\u6881
p4893
aV\u516c\u8def\u6865\u6881
p4894
aV\u516c\u8def\u6865\u6881
p4895
aV\u5316\u7ea4\u884c\u4e1a
p4896
aV\u5316\u7ea4\u884c\u4e1a
p4897
aV\u5316\u7ea4\u884c\u4e1a
p4898
aV\u5316\u7ea4\u884c\u4e1a
p4899
aV\u5316\u7ea4\u884c\u4e1a
p4900
aV\u5316\u7ea4\u884c\u4e1a
p4901
aV\u5316\u7ea4\u884c\u4e1a
p4902
aV\u5316\u7ea4\u884c\u4e1a
p4903
aV\u5316\u7ea4\u884c\u4e1a
p4904
aV\u5316\u7ea4\u884c\u4e1a
p4905
aV\u5316\u7ea4\u884c\u4e1a
p4906
aV\u5316\u7ea4\u884c\u4e1a
p4907
aV\u5316\u7ea4\u884c\u4e1a
p4908
aV\u5316\u7ea4\u884c\u4e1a
p4909
aV\u5316\u7ea4\u884c\u4e1a
p4910
aV\u5316\u7ea4\u884c\u4e1a
p4911
aV\u5316\u7ea4\u884c\u4e1a
p4912
aV\u5316\u7ea4\u884c\u4e1a
p4913
aV\u5316\u7ea4\u884c\u4e1a
p4914
aV\u5316\u7ea4\u884c\u4e1a
p4915
aV\u5316\u7ea4\u884c\u4e1a
p4916
aV\u5316\u7ea4\u884c\u4e1a
p4917
aV\u5316\u7ea4\u884c\u4e1a
p4918
aV\u5316\u7ea4\u884c\u4e1a
p4919
aV\u5316\u7ea4\u884c\u4e1a
p4920
aV\u5316\u7ea4\u884c\u4e1a
p4921
aV\u673a\u68b0\u884c\u4e1a
p4922
aV\u673a\u68b0\u884c\u4e1a
p4923
aV\u673a\u68b0\u884c\u4e1a
p4924
aV\u673a\u68b0\u884c\u4e1a
p4925
aV\u673a\u68b0\u884c\u4e1a
p4926
aV\u673a\u68b0\u884c\u4e1a
p4927
aV\u673a\u68b0\u884c\u4e1a
p4928
aV\u673a\u68b0\u884c\u4e1a
p4929
aV\u673a\u68b0\u884c\u4e1a
p4930
aV\u673a\u68b0\u884c\u4e1a
p4931
aV\u673a\u68b0\u884c\u4e1a
p4932
aV\u673a\u68b0\u884c\u4e1a
p4933
aV\u673a\u68b0\u884c\u4e1a
p4934
aV\u673a\u68b0\u884c\u4e1a
p4935
aV\u673a\u68b0\u884c\u4e1a
p4936
aV\u673a\u68b0\u884c\u4e1a
p4937
aV\u673a\u68b0\u884c\u4e1a
p4938
aV\u673a\u68b0\u884c\u4e1a
p4939
aV\u673a\u68b0\u884c\u4e1a
p4940
aV\u673a\u68b0\u884c\u4e1a
p4941
aV\u673a\u68b0\u884c\u4e1a
p4942
aV\u673a\u68b0\u884c\u4e1a
p4943
aV\u673a\u68b0\u884c\u4e1a
p4944
aV\u673a\u68b0\u884c\u4e1a
p4945
aV\u673a\u68b0\u884c\u4e1a
p4946
aV\u673a\u68b0\u884c\u4e1a
p4947
aV\u673a\u68b0\u884c\u4e1a
p4948
aV\u673a\u68b0\u884c\u4e1a
p4949
aV\u673a\u68b0\u884c\u4e1a
p4950
aV\u673a\u68b0\u884c\u4e1a
p4951
aV\u673a\u68b0\u884c\u4e1a
p4952
aV\u673a\u68b0\u884c\u4e1a
p4953
aV\u673a\u68b0\u884c\u4e1a
p4954
aV\u673a\u68b0\u884c\u4e1a
p4955
aV\u673a\u68b0\u884c\u4e1a
p4956
aV\u673a\u68b0\u884c\u4e1a
p4957
aV\u673a\u68b0\u884c\u4e1a
p4958
aV\u673a\u68b0\u884c\u4e1a
p4959
aV\u673a\u68b0\u884c\u4e1a
p4960
aV\u673a\u68b0\u884c\u4e1a
p4961
aV\u673a\u68b0\u884c\u4e1a
p4962
aV\u673a\u68b0\u884c\u4e1a
p4963
aV\u673a\u68b0\u884c\u4e1a
p4964
aV\u673a\u68b0\u884c\u4e1a
p4965
aV\u673a\u68b0\u884c\u4e1a
p4966
aV\u673a\u68b0\u884c\u4e1a
p4967
aV\u673a\u68b0\u884c\u4e1a
p4968
aV\u673a\u68b0\u884c\u4e1a
p4969
aV\u673a\u68b0\u884c\u4e1a
p4970
aV\u673a\u68b0\u884c\u4e1a
p4971
aV\u673a\u68b0\u884c\u4e1a
p4972
aV\u673a\u68b0\u884c\u4e1a
p4973
aV\u673a\u68b0\u884c\u4e1a
p4974
aV\u673a\u68b0\u884c\u4e1a
p4975
aV\u673a\u68b0\u884c\u4e1a
p4976
aV\u673a\u68b0\u884c\u4e1a
p4977
aV\u673a\u68b0\u884c\u4e1a
p4978
aV\u673a\u68b0\u884c\u4e1a
p4979
aV\u673a\u68b0\u884c\u4e1a
p4980
aV\u673a\u68b0\u884c\u4e1a
p4981
aV\u673a\u68b0\u884c\u4e1a
p4982
aV\u673a\u68b0\u884c\u4e1a
p4983
aV\u673a\u68b0\u884c\u4e1a
p4984
aV\u673a\u68b0\u884c\u4e1a
p4985
aV\u673a\u68b0\u884c\u4e1a
p4986
aV\u673a\u68b0\u884c\u4e1a
p4987
aV\u673a\u68b0\u884c\u4e1a
p4988
aV\u673a\u68b0\u884c\u4e1a
p4989
aV\u673a\u68b0\u884c\u4e1a
p4990
aV\u673a\u68b0\u884c\u4e1a
p4991
aV\u673a\u68b0\u884c\u4e1a
p4992
aV\u673a\u68b0\u884c\u4e1a
p4993
aV\u673a\u68b0\u884c\u4e1a
p4994
aV\u673a\u68b0\u884c\u4e1a
p4995
aV\u673a\u68b0\u884c\u4e1a
p4996
aV\u673a\u68b0\u884c\u4e1a
p4997
aV\u673a\u68b0\u884c\u4e1a
p4998
aV\u673a\u68b0\u884c\u4e1a
p4999
aV\u673a\u68b0\u884c\u4e1a
p5000
aV\u673a\u68b0\u884c\u4e1a
p5001
aV\u673a\u68b0\u884c\u4e1a
p5002
aV\u673a\u68b0\u884c\u4e1a
p5003
aV\u673a\u68b0\u884c\u4e1a
p5004
aV\u673a\u68b0\u884c\u4e1a
p5005
aV\u673a\u68b0\u884c\u4e1a
p5006
aV\u673a\u68b0\u884c\u4e1a
p5007
aV\u673a\u68b0\u884c\u4e1a
p5008
aV\u673a\u68b0\u884c\u4e1a
p5009
aV\u673a\u68b0\u884c\u4e1a
p5010
aV\u673a\u68b0\u884c\u4e1a
p5011
aV\u673a\u68b0\u884c\u4e1a
p5012
aV\u673a\u68b0\u884c\u4e1a
p5013
aV\u673a\u68b0\u884c\u4e1a
p5014
aV\u673a\u68b0\u884c\u4e1a
p5015
aV\u673a\u68b0\u884c\u4e1a
p5016
aV\u673a\u68b0\u884c\u4e1a
p5017
aV\u673a\u68b0\u884c\u4e1a
p5018
aV\u673a\u68b0\u884c\u4e1a
p5019
aV\u673a\u68b0\u884c\u4e1a
p5020
aV\u673a\u68b0\u884c\u4e1a
p5021
aV\u751f\u7269\u5236\u836f
p5022
aV\u751f\u7269\u5236\u836f
p5023
aV\u751f\u7269\u5236\u836f
p5024
aV\u751f\u7269\u5236\u836f
p5025
aV\u751f\u7269\u5236\u836f
p5026
aV\u751f\u7269\u5236\u836f
p5027
aV\u751f\u7269\u5236\u836f
p5028
aV\u751f\u7269\u5236\u836f
p5029
aV\u751f\u7269\u5236\u836f
p5030
aV\u751f\u7269\u5236\u836f
p5031
aV\u751f\u7269\u5236\u836f
p5032
aV\u751f\u7269\u5236\u836f
p5033
aV\u751f\u7269\u5236\u836f
p5034
aV\u751f\u7269\u5236\u836f
p5035
aV\u751f\u7269\u5236\u836f
p5036
aV\u751f\u7269\u5236\u836f
p5037
aV\u751f\u7269\u5236\u836f
p5038
aV\u751f\u7269\u5236\u836f
p5039
aV\u751f\u7269\u5236\u836f
p5040
aV\u751f\u7269\u5236\u836f
p5041
aV\u751f\u7269\u5236\u836f
p5042
aV\u751f\u7269\u5236\u836f
p5043
aV\u751f\u7269\u5236\u836f
p5044
aV\u751f\u7269\u5236\u836f
p5045
aV\u751f\u7269\u5236\u836f
p5046
aV\u751f\u7269\u5236\u836f
p5047
aV\u751f\u7269\u5236\u836f
p5048
aV\u751f\u7269\u5236\u836f
p5049
aV\u751f\u7269\u5236\u836f
p5050
aV\u751f\u7269\u5236\u836f
p5051
aV\u751f\u7269\u5236\u836f
p5052
aV\u751f\u7269\u5236\u836f
p5053
aV\u751f\u7269\u5236\u836f
p5054
aV\u751f\u7269\u5236\u836f
p5055
aV\u751f\u7269\u5236\u836f
p5056
aV\u751f\u7269\u5236\u836f
p5057
aV\u751f\u7269\u5236\u836f
p5058
aV\u751f\u7269\u5236\u836f
p5059
aV\u751f\u7269\u5236\u836f
p5060
aV\u751f\u7269\u5236\u836f
p5061
aV\u751f\u7269\u5236\u836f
p5062
aV\u751f\u7269\u5236\u836f
p5063
aV\u751f\u7269\u5236\u836f
p5064
aV\u751f\u7269\u5236\u836f
p5065
aV\u751f\u7269\u5236\u836f
p5066
aV\u751f\u7269\u5236\u836f
p5067
aV\u751f\u7269\u5236\u836f
p5068
aV\u751f\u7269\u5236\u836f
p5069
aV\u751f\u7269\u5236\u836f
p5070
aV\u751f\u7269\u5236\u836f
p5071
aV\u751f\u7269\u5236\u836f
p5072
aV\u751f\u7269\u5236\u836f
p5073
aV\u751f\u7269\u5236\u836f
p5074
aV\u751f\u7269\u5236\u836f
p5075
aV\u751f\u7269\u5236\u836f
p5076
aV\u751f\u7269\u5236\u836f
p5077
aV\u751f\u7269\u5236\u836f
p5078
aV\u751f\u7269\u5236\u836f
p5079
aV\u751f\u7269\u5236\u836f
p5080
aV\u751f\u7269\u5236\u836f
p5081
aV\u751f\u7269\u5236\u836f
p5082
aV\u751f\u7269\u5236\u836f
p5083
aV\u751f\u7269\u5236\u836f
p5084
aV\u751f\u7269\u5236\u836f
p5085
aV\u751f\u7269\u5236\u836f
p5086
aV\u751f\u7269\u5236\u836f
p5087
aV\u751f\u7269\u5236\u836f
p5088
aV\u751f\u7269\u5236\u836f
p5089
aV\u751f\u7269\u5236\u836f
p5090
aV\u751f\u7269\u5236\u836f
p5091
aV\u751f\u7269\u5236\u836f
p5092
aV\u751f\u7269\u5236\u836f
p5093
aV\u751f\u7269\u5236\u836f
p5094
aV\u751f\u7269\u5236\u836f
p5095
aV\u751f\u7269\u5236\u836f
p5096
aV\u751f\u7269\u5236\u836f
p5097
aV\u751f\u7269\u5236\u836f
p5098
aV\u751f\u7269\u5236\u836f
p5099
aV\u751f\u7269\u5236\u836f
p5100
aV\u751f\u7269\u5236\u836f
p5101
aV\u751f\u7269\u5236\u836f
p5102
aV\u751f\u7269\u5236\u836f
p5103
aV\u751f\u7269\u5236\u836f
p5104
aV\u751f\u7269\u5236\u836f
p5105
aV\u751f\u7269\u5236\u836f
p5106
aV\u751f\u7269\u5236\u836f
p5107
aV\u751f\u7269\u5236\u836f
p5108
aV\u751f\u7269\u5236\u836f
p5109
aV\u751f\u7269\u5236\u836f
p5110
aV\u751f\u7269\u5236\u836f
p5111
aV\u751f\u7269\u5236\u836f
p5112
aV\u751f\u7269\u5236\u836f
p5113
aV\u751f\u7269\u5236\u836f
p5114
aV\u751f\u7269\u5236\u836f
p5115
aV\u751f\u7269\u5236\u836f
p5116
aV\u751f\u7269\u5236\u836f
p5117
aV\u751f\u7269\u5236\u836f
p5118
aV\u751f\u7269\u5236\u836f
p5119
aV\u751f\u7269\u5236\u836f
p5120
aV\u751f\u7269\u5236\u836f
p5121
aV\u77f3\u6cb9\u884c\u4e1a
p5122
aV\u77f3\u6cb9\u884c\u4e1a
p5123
aV\u77f3\u6cb9\u884c\u4e1a
p5124
aV\u77f3\u6cb9\u884c\u4e1a
p5125
aV\u77f3\u6cb9\u884c\u4e1a
p5126
aV\u77f3\u6cb9\u884c\u4e1a
p5127
aV\u77f3\u6cb9\u884c\u4e1a
p5128
aV\u77f3\u6cb9\u884c\u4e1a
p5129
aV\u77f3\u6cb9\u884c\u4e1a
p5130
aV\u77f3\u6cb9\u884c\u4e1a
p5131
aV\u77f3\u6cb9\u884c\u4e1a
p5132
aV\u77f3\u6cb9\u884c\u4e1a
p5133
aV\u77f3\u6cb9\u884c\u4e1a
p5134
aV\u77f3\u6cb9\u884c\u4e1a
p5135
aV\u77f3\u6cb9\u884c\u4e1a
p5136
aV\u77f3\u6cb9\u884c\u4e1a
p5137
aV\u77f3\u6cb9\u884c\u4e1a
p5138
aV\u77f3\u6cb9\u884c\u4e1a
p5139
aV\u77f3\u6cb9\u884c\u4e1a
p5140
aV\u77f3\u6cb9\u884c\u4e1a
p5141
aV\u77f3\u6cb9\u884c\u4e1a
p5142
aV\u77f3\u6cb9\u884c\u4e1a
p5143
aV\u77f3\u6cb9\u884c\u4e1a
p5144
aV\u77f3\u6cb9\u884c\u4e1a
p5145
aV\u73bb\u7483\u884c\u4e1a
p5146
aV\u73bb\u7483\u884c\u4e1a
p5147
aV\u73bb\u7483\u884c\u4e1a
p5148
aV\u73bb\u7483\u884c\u4e1a
p5149
aV\u73bb\u7483\u884c\u4e1a
p5150
aV\u73bb\u7483\u884c\u4e1a
p5151
aV\u73bb\u7483\u884c\u4e1a
p5152
aV\u73bb\u7483\u884c\u4e1a
p5153
aV\u73bb\u7483\u884c\u4e1a
p5154
aV\u73bb\u7483\u884c\u4e1a
p5155
aV\u73bb\u7483\u884c\u4e1a
p5156
aV\u73bb\u7483\u884c\u4e1a
p5157
aV\u73bb\u7483\u884c\u4e1a
p5158
aV\u73bb\u7483\u884c\u4e1a
p5159
aV\u73bb\u7483\u884c\u4e1a
p5160
aV\u73bb\u7483\u884c\u4e1a
p5161
aV\u73bb\u7483\u884c\u4e1a
p5162
aV\u73bb\u7483\u884c\u4e1a
p5163
aV\u73bb\u7483\u884c\u4e1a
p5164
aV\u4eea\u5668\u4eea\u8868
p5165
aV\u4eea\u5668\u4eea\u8868
p5166
aV\u4eea\u5668\u4eea\u8868
p5167
aV\u4eea\u5668\u4eea\u8868
p5168
aV\u4eea\u5668\u4eea\u8868
p5169
aV\u4eea\u5668\u4eea\u8868
p5170
aV\u4eea\u5668\u4eea\u8868
p5171
aV\u4eea\u5668\u4eea\u8868
p5172
aV\u4eea\u5668\u4eea\u8868
p5173
aV\u4eea\u5668\u4eea\u8868
p5174
aV\u4eea\u5668\u4eea\u8868
p5175
aV\u4eea\u5668\u4eea\u8868
p5176
aV\u4eea\u5668\u4eea\u8868
p5177
aV\u4eea\u5668\u4eea\u8868
p5178
aV\u4eea\u5668\u4eea\u8868
p5179
aV\u4eea\u5668\u4eea\u8868
p5180
aV\u4eea\u5668\u4eea\u8868
p5181
aV\u4eea\u5668\u4eea\u8868
p5182
aV\u4eea\u5668\u4eea\u8868
p5183
aV\u4eea\u5668\u4eea\u8868
p5184
aV\u4eea\u5668\u4eea\u8868
p5185
aV\u4eea\u5668\u4eea\u8868
p5186
aV\u4eea\u5668\u4eea\u8868
p5187
aV\u4eea\u5668\u4eea\u8868
p5188
aV\u4eea\u5668\u4eea\u8868
p5189
aV\u4eea\u5668\u4eea\u8868
p5190
aV\u4eea\u5668\u4eea\u8868
p5191
aV\u4eea\u5668\u4eea\u8868
p5192
aV\u4eea\u5668\u4eea\u8868
p5193
aV\u4eea\u5668\u4eea\u8868
p5194
aV\u4eea\u5668\u4eea\u8868
p5195
aV\u4eea\u5668\u4eea\u8868
p5196
aV\u4eea\u5668\u4eea\u8868
p5197
aV\u4eea\u5668\u4eea\u8868
p5198
aV\u4eea\u5668\u4eea\u8868
p5199
aV\u4eea\u5668\u4eea\u8868
p5200
aV\u4eea\u5668\u4eea\u8868
p5201
aV\u4eea\u5668\u4eea\u8868
p5202
aV\u4eea\u5668\u4eea\u8868
p5203
aV\u4eea\u5668\u4eea\u8868
p5204
aV\u4eea\u5668\u4eea\u8868
p5205
aV\u4eea\u5668\u4eea\u8868
p5206
aV\u4eea\u5668\u4eea\u8868
p5207
aV\u4eea\u5668\u4eea\u8868
p5208
aV\u4eea\u5668\u4eea\u8868
p5209
aV\u4eea\u5668\u4eea\u8868
p5210
aV\u4eea\u5668\u4eea\u8868
p5211
aV\u4eea\u5668\u4eea\u8868
p5212
aV\u4ea4\u901a\u8fd0\u8f93
p5213
aV\u4ea4\u901a\u8fd0\u8f93
p5214
aV\u4ea4\u901a\u8fd0\u8f93
p5215
aV\u4ea4\u901a\u8fd0\u8f93
p5216
aV\u4ea4\u901a\u8fd0\u8f93
p5217
aV\u4ea4\u901a\u8fd0\u8f93
p5218
aV\u4ea4\u901a\u8fd0\u8f93
p5219
aV\u4ea4\u901a\u8fd0\u8f93
p5220
aV\u4ea4\u901a\u8fd0\u8f93
p5221
aV\u4ea4\u901a\u8fd0\u8f93
p5222
aV\u4ea4\u901a\u8fd0\u8f93
p5223
aV\u4ea4\u901a\u8fd0\u8f93
p5224
aV\u4ea4\u901a\u8fd0\u8f93
p5225
aV\u4ea4\u901a\u8fd0\u8f93
p5226
aV\u4ea4\u901a\u8fd0\u8f93
p5227
aV\u4ea4\u901a\u8fd0\u8f93
p5228
aV\u4ea4\u901a\u8fd0\u8f93
p5229
aV\u4ea4\u901a\u8fd0\u8f93
p5230
aV\u4ea4\u901a\u8fd0\u8f93
p5231
aV\u4ea4\u901a\u8fd0\u8f93
p5232
aV\u4ea4\u901a\u8fd0\u8f93
p5233
aV\u4ea4\u901a\u8fd0\u8f93
p5234
aV\u4ea4\u901a\u8fd0\u8f93
p5235
aV\u4ea4\u901a\u8fd0\u8f93
p5236
aV\u4ea4\u901a\u8fd0\u8f93
p5237
aV\u4ea4\u901a\u8fd0\u8f93
p5238
aV\u4ea4\u901a\u8fd0\u8f93
p5239
aV\u4ea4\u901a\u8fd0\u8f93
p5240
aV\u4ea4\u901a\u8fd0\u8f93
p5241
aV\u4ea4\u901a\u8fd0\u8f93
p5242
aV\u4ea4\u901a\u8fd0\u8f93
p5243
aV\u4ea4\u901a\u8fd0\u8f93
p5244
aV\u4ea4\u901a\u8fd0\u8f93
p5245
aV\u4ea4\u901a\u8fd0\u8f93
p5246
aV\u4ea4\u901a\u8fd0\u8f93
p5247
aV\u4ea4\u901a\u8fd0\u8f93
p5248
aV\u4ea4\u901a\u8fd0\u8f93
p5249
aV\u4ea4\u901a\u8fd0\u8f93
p5250
aV\u4ea4\u901a\u8fd0\u8f93
p5251
aV\u4ea4\u901a\u8fd0\u8f93
p5252
aV\u4ea4\u901a\u8fd0\u8f93
p5253
aV\u4ea4\u901a\u8fd0\u8f93
p5254
aV\u4ea4\u901a\u8fd0\u8f93
p5255
aV\u4ea4\u901a\u8fd0\u8f93
p5256
aV\u4ea4\u901a\u8fd0\u8f93
p5257
aV\u4ea4\u901a\u8fd0\u8f93
p5258
aV\u4ea4\u901a\u8fd0\u8f93
p5259
aV\u4ea4\u901a\u8fd0\u8f93
p5260
aV\u4ea4\u901a\u8fd0\u8f93
p5261
aV\u4ea4\u901a\u8fd0\u8f93
p5262
aV\u4ea4\u901a\u8fd0\u8f93
p5263
aV\u4ea4\u901a\u8fd0\u8f93
p5264
aV\u4ea4\u901a\u8fd0\u8f93
p5265
aV\u4ea4\u901a\u8fd0\u8f93
p5266
aV\u4ea4\u901a\u8fd0\u8f93
p5267
aV\u4ea4\u901a\u8fd0\u8f93
p5268
aV\u4ea4\u901a\u8fd0\u8f93
p5269
aV\u4ea4\u901a\u8fd0\u8f93
p5270
aV\u4ea4\u901a\u8fd0\u8f93
p5271
aV\u4ea4\u901a\u8fd0\u8f93
p5272
aV\u4ea4\u901a\u8fd0\u8f93
p5273
aV\u4ea4\u901a\u8fd0\u8f93
p5274
aV\u4ea4\u901a\u8fd0\u8f93
p5275
aV\u4ea4\u901a\u8fd0\u8f93
p5276
aV\u4ea4\u901a\u8fd0\u8f93
p5277
aV\u4ea4\u901a\u8fd0\u8f93
p5278
aV\u4ea4\u901a\u8fd0\u8f93
p5279
aV\u4ea4\u901a\u8fd0\u8f93
p5280
aV\u4ea4\u901a\u8fd0\u8f93
p5281
aV\u4ea4\u901a\u8fd0\u8f93
p5282
aV\u4ea4\u901a\u8fd0\u8f93
p5283
aV\u4ea4\u901a\u8fd0\u8f93
p5284
aV\u4ea4\u901a\u8fd0\u8f93
p5285
aV\u4ea4\u901a\u8fd0\u8f93
p5286
aV\u4ea4\u901a\u8fd0\u8f93
p5287
aV\u4ea4\u901a\u8fd0\u8f93
p5288
aV\u4ea4\u901a\u8fd0\u8f93
p5289
aV\u4ea4\u901a\u8fd0\u8f93
p5290
aV\u4ea4\u901a\u8fd0\u8f93
p5291
aV\u4ea4\u901a\u8fd0\u8f93
p5292
aV\u4ea4\u901a\u8fd0\u8f93
p5293
aV\u4ea4\u901a\u8fd0\u8f93
p5294
aV\u4ea4\u901a\u8fd0\u8f93
p5295
aV\u4ea4\u901a\u8fd0\u8f93
p5296
aV\u4ea4\u901a\u8fd0\u8f93
p5297
aV\u4ea4\u901a\u8fd0\u8f93
p5298
aV\u4ea4\u901a\u8fd0\u8f93
p5299
aV\u98de\u673a\u5236\u9020
p5300
aV\u98de\u673a\u5236\u9020
p5301
aV\u98de\u673a\u5236\u9020
p5302
aV\u98de\u673a\u5236\u9020
p5303
aV\u98de\u673a\u5236\u9020
p5304
aV\u98de\u673a\u5236\u9020
p5305
aV\u98de\u673a\u5236\u9020
p5306
aV\u98de\u673a\u5236\u9020
p5307
aV\u98de\u673a\u5236\u9020
p5308
aV\u98de\u673a\u5236\u9020
p5309
aV\u98de\u673a\u5236\u9020
p5310
aV\u98de\u673a\u5236\u9020
p5311
aV\u98de\u673a\u5236\u9020
p5312
aV\u98de\u673a\u5236\u9020
p5313
aV\u519c\u6797\u7267\u6e14
p5314
aV\u519c\u6797\u7267\u6e14
p5315
aV\u519c\u6797\u7267\u6e14
p5316
aV\u519c\u6797\u7267\u6e14
p5317
aV\u519c\u6797\u7267\u6e14
p5318
aV\u519c\u6797\u7267\u6e14
p5319
aV\u519c\u6797\u7267\u6e14
p5320
aV\u519c\u6797\u7267\u6e14
p5321
aV\u519c\u6797\u7267\u6e14
p5322
aV\u519c\u6797\u7267\u6e14
p5323
aV\u519c\u6797\u7267\u6e14
p5324
aV\u519c\u6797\u7267\u6e14
p5325
aV\u519c\u6797\u7267\u6e14
p5326
aV\u519c\u6797\u7267\u6e14
p5327
aV\u519c\u6797\u7267\u6e14
p5328
aV\u519c\u6797\u7267\u6e14
p5329
aV\u519c\u6797\u7267\u6e14
p5330
aV\u519c\u6797\u7267\u6e14
p5331
aV\u519c\u6797\u7267\u6e14
p5332
aV\u519c\u6797\u7267\u6e14
p5333
aV\u519c\u6797\u7267\u6e14
p5334
aV\u519c\u6797\u7267\u6e14
p5335
aV\u519c\u6797\u7267\u6e14
p5336
aV\u519c\u6797\u7267\u6e14
p5337
aV\u519c\u6797\u7267\u6e14
p5338
aV\u519c\u6797\u7267\u6e14
p5339
aV\u519c\u6797\u7267\u6e14
p5340
aV\u519c\u6797\u7267\u6e14
p5341
aV\u519c\u6797\u7267\u6e14
p5342
aV\u519c\u6797\u7267\u6e14
p5343
aV\u519c\u6797\u7267\u6e14
p5344
aV\u519c\u6797\u7267\u6e14
p5345
aV\u519c\u6797\u7267\u6e14
p5346
aV\u519c\u6797\u7267\u6e14
p5347
aV\u519c\u6797\u7267\u6e14
p5348
aV\u519c\u6797\u7267\u6e14
p5349
aV\u519c\u6797\u7267\u6e14
p5350
aV\u519c\u6797\u7267\u6e14
p5351
aV\u519c\u6797\u7267\u6e14
p5352
aV\u519c\u6797\u7267\u6e14
p5353
aV\u519c\u6797\u7267\u6e14
p5354
aV\u519c\u6797\u7267\u6e14
p5355
aV\u519c\u6797\u7267\u6e14
p5356
aV\u519c\u6797\u7267\u6e14
p5357
aV\u519c\u6797\u7267\u6e14
p5358
aV\u519c\u6797\u7267\u6e14
p5359
aV\u519c\u6797\u7267\u6e14
p5360
aV\u519c\u6797\u7267\u6e14
p5361
aV\u519c\u6797\u7267\u6e14
p5362
aV\u519c\u6797\u7267\u6e14
p5363
aV\u519c\u6797\u7267\u6e14
p5364
aV\u519c\u6797\u7267\u6e14
p5365
aV\u519c\u6797\u7267\u6e14
p5366
aV\u519c\u6797\u7267\u6e14
p5367
aV\u519c\u6797\u7267\u6e14
p5368
aV\u519c\u6797\u7267\u6e14
p5369
aV\u519c\u6797\u7267\u6e14
p5370
aV\u519c\u6797\u7267\u6e14
p5371
aV\u519c\u6797\u7267\u6e14
p5372
aV\u519c\u6797\u7267\u6e14
p5373
aV\u519c\u6797\u7267\u6e14
p5374
aV\u519c\u6797\u7267\u6e14
p5375
aV\u519c\u6797\u7267\u6e14
p5376
aV\u519c\u6797\u7267\u6e14
p5377
aV\u5efa\u7b51\u5efa\u6750
p5378
aV\u5efa\u7b51\u5efa\u6750
p5379
aV\u5efa\u7b51\u5efa\u6750
p5380
aV\u5efa\u7b51\u5efa\u6750
p5381
aV\u5efa\u7b51\u5efa\u6750
p5382
aV\u5efa\u7b51\u5efa\u6750
p5383
aV\u5efa\u7b51\u5efa\u6750
p5384
aV\u5efa\u7b51\u5efa\u6750
p5385
aV\u5efa\u7b51\u5efa\u6750
p5386
aV\u5efa\u7b51\u5efa\u6750
p5387
aV\u5efa\u7b51\u5efa\u6750
p5388
aV\u5efa\u7b51\u5efa\u6750
p5389
aV\u5efa\u7b51\u5efa\u6750
p5390
aV\u5efa\u7b51\u5efa\u6750
p5391
aV\u5efa\u7b51\u5efa\u6750
p5392
aV\u5efa\u7b51\u5efa\u6750
p5393
aV\u5efa\u7b51\u5efa\u6750
p5394
aV\u5efa\u7b51\u5efa\u6750
p5395
aV\u5efa\u7b51\u5efa\u6750
p5396
aV\u5efa\u7b51\u5efa\u6750
p5397
aV\u5efa\u7b51\u5efa\u6750
p5398
aV\u5efa\u7b51\u5efa\u6750
p5399
aV\u5efa\u7b51\u5efa\u6750
p5400
aV\u5efa\u7b51\u5efa\u6750
p5401
aV\u5efa\u7b51\u5efa\u6750
p5402
aV\u5efa\u7b51\u5efa\u6750
p5403
aV\u5efa\u7b51\u5efa\u6750
p5404
aV\u5efa\u7b51\u5efa\u6750
p5405
aV\u5efa\u7b51\u5efa\u6750
p5406
aV\u5efa\u7b51\u5efa\u6750
p5407
aV\u5efa\u7b51\u5efa\u6750
p5408
aV\u5efa\u7b51\u5efa\u6750
p5409
aV\u5efa\u7b51\u5efa\u6750
p5410
aV\u5efa\u7b51\u5efa\u6750
p5411
aV\u5efa\u7b51\u5efa\u6750
p5412
aV\u5efa\u7b51\u5efa\u6750
p5413
aV\u5efa\u7b51\u5efa\u6750
p5414
aV\u5efa\u7b51\u5efa\u6750
p5415
aV\u5efa\u7b51\u5efa\u6750
p5416
aV\u5efa\u7b51\u5efa\u6750
p5417
aV\u5efa\u7b51\u5efa\u6750
p5418
aV\u5efa\u7b51\u5efa\u6750
p5419
aV\u5efa\u7b51\u5efa\u6750
p5420
aV\u5efa\u7b51\u5efa\u6750
p5421
aV\u5efa\u7b51\u5efa\u6750
p5422
aV\u5efa\u7b51\u5efa\u6750
p5423
aV\u5efa\u7b51\u5efa\u6750
p5424
aV\u5efa\u7b51\u5efa\u6750
p5425
aV\u5efa\u7b51\u5efa\u6750
p5426
aV\u5efa\u7b51\u5efa\u6750
p5427
aV\u5efa\u7b51\u5efa\u6750
p5428
aV\u5efa\u7b51\u5efa\u6750
p5429
aV\u5efa\u7b51\u5efa\u6750
p5430
aV\u5efa\u7b51\u5efa\u6750
p5431
aV\u5efa\u7b51\u5efa\u6750
p5432
aV\u5efa\u7b51\u5efa\u6750
p5433
aV\u5efa\u7b51\u5efa\u6750
p5434
aV\u5efa\u7b51\u5efa\u6750
p5435
aV\u5efa\u7b51\u5efa\u6750
p5436
aV\u5efa\u7b51\u5efa\u6750
p5437
aV\u5efa\u7b51\u5efa\u6750
p5438
aV\u5efa\u7b51\u5efa\u6750
p5439
aV\u5efa\u7b51\u5efa\u6750
p5440
aV\u5efa\u7b51\u5efa\u6750
p5441
aV\u5efa\u7b51\u5efa\u6750
p5442
aV\u5efa\u7b51\u5efa\u6750
p5443
aV\u5efa\u7b51\u5efa\u6750
p5444
aV\u5efa\u7b51\u5efa\u6750
p5445
aV\u5efa\u7b51\u5efa\u6750
p5446
aV\u5efa\u7b51\u5efa\u6750
p5447
aV\u5efa\u7b51\u5efa\u6750
p5448
aV\u5efa\u7b51\u5efa\u6750
p5449
aV\u5efa\u7b51\u5efa\u6750
p5450
aV\u5efa\u7b51\u5efa\u6750
p5451
aV\u5efa\u7b51\u5efa\u6750
p5452
aV\u5efa\u7b51\u5efa\u6750
p5453
aV\u5efa\u7b51\u5efa\u6750
p5454
aV\u5efa\u7b51\u5efa\u6750
p5455
aV\u5efa\u7b51\u5efa\u6750
p5456
aV\u5efa\u7b51\u5efa\u6750
p5457
aV\u5efa\u7b51\u5efa\u6750
p5458
aV\u5efa\u7b51\u5efa\u6750
p5459
aV\u5efa\u7b51\u5efa\u6750
p5460
aV\u5efa\u7b51\u5efa\u6750
p5461
aV\u5efa\u7b51\u5efa\u6750
p5462
aV\u5efa\u7b51\u5efa\u6750
p5463
aV\u5efa\u7b51\u5efa\u6750
p5464
aV\u5efa\u7b51\u5efa\u6750
p5465
aV\u5efa\u7b51\u5efa\u6750
p5466
aV\u5efa\u7b51\u5efa\u6750
p5467
aV\u5efa\u7b51\u5efa\u6750
p5468
aV\u5851\u6599\u5236\u54c1
p5469
aV\u5851\u6599\u5236\u54c1
p5470
aV\u5851\u6599\u5236\u54c1
p5471
aV\u5851\u6599\u5236\u54c1
p5472
aV\u5851\u6599\u5236\u54c1
p5473
aV\u5851\u6599\u5236\u54c1
p5474
aV\u5851\u6599\u5236\u54c1
p5475
aV\u5851\u6599\u5236\u54c1
p5476
aV\u5851\u6599\u5236\u54c1
p5477
aV\u5851\u6599\u5236\u54c1
p5478
aV\u5851\u6599\u5236\u54c1
p5479
aV\u5851\u6599\u5236\u54c1
p5480
aV\u5851\u6599\u5236\u54c1
p5481
aV\u5851\u6599\u5236\u54c1
p5482
aV\u5851\u6599\u5236\u54c1
p5483
aV\u5851\u6599\u5236\u54c1
p5484
aV\u5851\u6599\u5236\u54c1
p5485
aV\u5851\u6599\u5236\u54c1
p5486
aV\u5851\u6599\u5236\u54c1
p5487
aV\u5851\u6599\u5236\u54c1
p5488
aV\u5851\u6599\u5236\u54c1
p5489
aV\u5851\u6599\u5236\u54c1
p5490
aV\u5851\u6599\u5236\u54c1
p5491
aV\u5851\u6599\u5236\u54c1
p5492
aV\u5851\u6599\u5236\u54c1
p5493
aV\u5851\u6599\u5236\u54c1
p5494
aV\u5851\u6599\u5236\u54c1
p5495
aV\u5851\u6599\u5236\u54c1
p5496
aV\u5851\u6599\u5236\u54c1
p5497
aV\u5851\u6599\u5236\u54c1
p5498
aV\u5851\u6599\u5236\u54c1
p5499
aV\u5851\u6599\u5236\u54c1
p5500
aV\u5851\u6599\u5236\u54c1
p5501
aV\u5546\u4e1a\u767e\u8d27
p5502
aV\u5546\u4e1a\u767e\u8d27
p5503
aV\u5546\u4e1a\u767e\u8d27
p5504
aV\u5546\u4e1a\u767e\u8d27
p5505
aV\u5546\u4e1a\u767e\u8d27
p5506
aV\u5546\u4e1a\u767e\u8d27
p5507
aV\u5546\u4e1a\u767e\u8d27
p5508
aV\u5546\u4e1a\u767e\u8d27
p5509
aV\u5546\u4e1a\u767e\u8d27
p5510
aV\u5546\u4e1a\u767e\u8d27
p5511
aV\u5546\u4e1a\u767e\u8d27
p5512
aV\u5546\u4e1a\u767e\u8d27
p5513
aV\u5546\u4e1a\u767e\u8d27
p5514
aV\u5546\u4e1a\u767e\u8d27
p5515
aV\u5546\u4e1a\u767e\u8d27
p5516
aV\u5546\u4e1a\u767e\u8d27
p5517
aV\u5546\u4e1a\u767e\u8d27
p5518
aV\u5546\u4e1a\u767e\u8d27
p5519
aV\u5546\u4e1a\u767e\u8d27
p5520
aV\u5546\u4e1a\u767e\u8d27
p5521
aV\u5546\u4e1a\u767e\u8d27
p5522
aV\u5546\u4e1a\u767e\u8d27
p5523
aV\u5546\u4e1a\u767e\u8d27
p5524
aV\u5546\u4e1a\u767e\u8d27
p5525
aV\u5546\u4e1a\u767e\u8d27
p5526
aV\u5546\u4e1a\u767e\u8d27
p5527
aV\u5546\u4e1a\u767e\u8d27
p5528
aV\u5546\u4e1a\u767e\u8d27
p5529
aV\u5546\u4e1a\u767e\u8d27
p5530
aV\u5546\u4e1a\u767e\u8d27
p5531
aV\u5546\u4e1a\u767e\u8d27
p5532
aV\u5546\u4e1a\u767e\u8d27
p5533
aV\u5546\u4e1a\u767e\u8d27
p5534
aV\u5546\u4e1a\u767e\u8d27
p5535
aV\u5546\u4e1a\u767e\u8d27
p5536
aV\u5546\u4e1a\u767e\u8d27
p5537
aV\u5546\u4e1a\u767e\u8d27
p5538
aV\u5546\u4e1a\u767e\u8d27
p5539
aV\u5546\u4e1a\u767e\u8d27
p5540
aV\u5546\u4e1a\u767e\u8d27
p5541
aV\u5546\u4e1a\u767e\u8d27
p5542
aV\u5546\u4e1a\u767e\u8d27
p5543
aV\u5546\u4e1a\u767e\u8d27
p5544
aV\u5546\u4e1a\u767e\u8d27
p5545
aV\u5546\u4e1a\u767e\u8d27
p5546
aV\u5546\u4e1a\u767e\u8d27
p5547
aV\u5546\u4e1a\u767e\u8d27
p5548
aV\u5546\u4e1a\u767e\u8d27
p5549
aV\u5546\u4e1a\u767e\u8d27
p5550
aV\u5546\u4e1a\u767e\u8d27
p5551
aV\u5546\u4e1a\u767e\u8d27
p5552
aV\u5546\u4e1a\u767e\u8d27
p5553
aV\u5546\u4e1a\u767e\u8d27
p5554
aV\u5546\u4e1a\u767e\u8d27
p5555
aV\u5546\u4e1a\u767e\u8d27
p5556
aV\u5546\u4e1a\u767e\u8d27
p5557
aV\u5546\u4e1a\u767e\u8d27
p5558
aV\u5546\u4e1a\u767e\u8d27
p5559
aV\u5546\u4e1a\u767e\u8d27
p5560
aV\u5546\u4e1a\u767e\u8d27
p5561
aV\u5546\u4e1a\u767e\u8d27
p5562
aV\u5546\u4e1a\u767e\u8d27
p5563
aV\u5546\u4e1a\u767e\u8d27
p5564
aV\u5546\u4e1a\u767e\u8d27
p5565
aV\u5546\u4e1a\u767e\u8d27
p5566
aV\u5546\u4e1a\u767e\u8d27
p5567
aV\u5546\u4e1a\u767e\u8d27
p5568
aV\u5546\u4e1a\u767e\u8d27
p5569
aV\u5546\u4e1a\u767e\u8d27
p5570
aV\u5546\u4e1a\u767e\u8d27
p5571
aV\u5546\u4e1a\u767e\u8d27
p5572
aV\u5546\u4e1a\u767e\u8d27
p5573
aV\u5546\u4e1a\u767e\u8d27
p5574
aV\u5546\u4e1a\u767e\u8d27
p5575
aV\u5546\u4e1a\u767e\u8d27
p5576
aV\u5546\u4e1a\u767e\u8d27
p5577
aV\u5546\u4e1a\u767e\u8d27
p5578
aV\u5546\u4e1a\u767e\u8d27
p5579
aV\u5546\u4e1a\u767e\u8d27
p5580
aV\u5546\u4e1a\u767e\u8d27
p5581
aV\u5546\u4e1a\u767e\u8d27
p5582
aV\u5546\u4e1a\u767e\u8d27
p5583
aV\u5546\u4e1a\u767e\u8d27
p5584
aV\u5546\u4e1a\u767e\u8d27
p5585
aV\u5546\u4e1a\u767e\u8d27
p5586
aV\u5546\u4e1a\u767e\u8d27
p5587
aV\u5546\u4e1a\u767e\u8d27
p5588
aV\u5546\u4e1a\u767e\u8d27
p5589
aV\u5546\u4e1a\u767e\u8d27
p5590
aV\u5546\u4e1a\u767e\u8d27
p5591
aV\u5546\u4e1a\u767e\u8d27
p5592
aV\u5546\u4e1a\u767e\u8d27
p5593
aV\u5546\u4e1a\u767e\u8d27
p5594
aV\u7eba\u7ec7\u884c\u4e1a
p5595
aV\u7eba\u7ec7\u884c\u4e1a
p5596
aV\u7eba\u7ec7\u884c\u4e1a
p5597
aV\u7eba\u7ec7\u884c\u4e1a
p5598
aV\u7eba\u7ec7\u884c\u4e1a
p5599
aV\u7eba\u7ec7\u884c\u4e1a
p5600
aV\u7eba\u7ec7\u884c\u4e1a
p5601
aV\u7eba\u7ec7\u884c\u4e1a
p5602
aV\u7eba\u7ec7\u884c\u4e1a
p5603
aV\u7eba\u7ec7\u884c\u4e1a
p5604
aV\u7eba\u7ec7\u884c\u4e1a
p5605
aV\u7eba\u7ec7\u884c\u4e1a
p5606
aV\u7eba\u7ec7\u884c\u4e1a
p5607
aV\u7eba\u7ec7\u884c\u4e1a
p5608
aV\u7eba\u7ec7\u884c\u4e1a
p5609
aV\u7eba\u7ec7\u884c\u4e1a
p5610
aV\u7eba\u7ec7\u884c\u4e1a
p5611
aV\u7eba\u7ec7\u884c\u4e1a
p5612
aV\u7eba\u7ec7\u884c\u4e1a
p5613
aV\u7eba\u7ec7\u884c\u4e1a
p5614
aV\u7eba\u7ec7\u884c\u4e1a
p5615
aV\u7eba\u7ec7\u884c\u4e1a
p5616
aV\u7eba\u7ec7\u884c\u4e1a
p5617
aV\u7eba\u7ec7\u884c\u4e1a
p5618
aV\u7eba\u7ec7\u884c\u4e1a
p5619
aV\u7eba\u7ec7\u884c\u4e1a
p5620
aV\u7eba\u7ec7\u884c\u4e1a
p5621
aV\u7eba\u7ec7\u884c\u4e1a
p5622
aV\u7eba\u7ec7\u884c\u4e1a
p5623
aV\u7eba\u7ec7\u884c\u4e1a
p5624
aV\u7eba\u7ec7\u884c\u4e1a
p5625
aV\u7eba\u7ec7\u884c\u4e1a
p5626
aV\u7eba\u7ec7\u884c\u4e1a
p5627
aV\u7eba\u7ec7\u884c\u4e1a
p5628
aV\u7eba\u7ec7\u884c\u4e1a
p5629
aV\u7eba\u7ec7\u884c\u4e1a
p5630
aV\u7eba\u7ec7\u884c\u4e1a
p5631
aV\u7eba\u7ec7\u884c\u4e1a
p5632
aV\u7eba\u7ec7\u884c\u4e1a
p5633
aV\u7eba\u7ec7\u884c\u4e1a
p5634
aV\u7eba\u7ec7\u884c\u4e1a
p5635
aV\u7eba\u7ec7\u884c\u4e1a
p5636
aV\u533b\u7597\u5668\u68b0
p5637
aV\u533b\u7597\u5668\u68b0
p5638
aV\u533b\u7597\u5668\u68b0
p5639
aV\u533b\u7597\u5668\u68b0
p5640
aV\u533b\u7597\u5668\u68b0
p5641
aV\u533b\u7597\u5668\u68b0
p5642
aV\u533b\u7597\u5668\u68b0
p5643
aV\u533b\u7597\u5668\u68b0
p5644
aV\u533b\u7597\u5668\u68b0
p5645
aV\u533b\u7597\u5668\u68b0
p5646
aV\u533b\u7597\u5668\u68b0
p5647
aV\u533b\u7597\u5668\u68b0
p5648
aV\u533b\u7597\u5668\u68b0
p5649
aV\u533b\u7597\u5668\u68b0
p5650
aV\u533b\u7597\u5668\u68b0
p5651
aV\u533b\u7597\u5668\u68b0
p5652
aV\u533b\u7597\u5668\u68b0
p5653
aV\u533b\u7597\u5668\u68b0
p5654
aV\u533b\u7597\u5668\u68b0
p5655
aV\u533b\u7597\u5668\u68b0
p5656
aV\u533b\u7597\u5668\u68b0
p5657
aV\u533b\u7597\u5668\u68b0
p5658
aV\u533b\u7597\u5668\u68b0
p5659
aV\u533b\u7597\u5668\u68b0
p5660
aV\u533b\u7597\u5668\u68b0
p5661
aV\u533b\u7597\u5668\u68b0
p5662
aV\u533b\u7597\u5668\u68b0
p5663
aV\u533b\u7597\u5668\u68b0
p5664
aV\u533b\u7597\u5668\u68b0
p5665
aV\u533b\u7597\u5668\u68b0
p5666
aV\u533b\u7597\u5668\u68b0
p5667
aV\u6709\u8272\u91d1\u5c5e
p5668
aV\u6709\u8272\u91d1\u5c5e
p5669
aV\u6709\u8272\u91d1\u5c5e
p5670
aV\u6709\u8272\u91d1\u5c5e
p5671
aV\u6709\u8272\u91d1\u5c5e
p5672
aV\u6709\u8272\u91d1\u5c5e
p5673
aV\u6709\u8272\u91d1\u5c5e
p5674
aV\u6709\u8272\u91d1\u5c5e
p5675
aV\u6709\u8272\u91d1\u5c5e
p5676
aV\u6709\u8272\u91d1\u5c5e
p5677
aV\u6709\u8272\u91d1\u5c5e
p5678
aV\u6709\u8272\u91d1\u5c5e
p5679
aV\u6709\u8272\u91d1\u5c5e
p5680
aV\u6709\u8272\u91d1\u5c5e
p5681
aV\u6709\u8272\u91d1\u5c5e
p5682
aV\u6709\u8272\u91d1\u5c5e
p5683
aV\u6709\u8272\u91d1\u5c5e
p5684
aV\u6709\u8272\u91d1\u5c5e
p5685
aV\u6709\u8272\u91d1\u5c5e
p5686
aV\u6709\u8272\u91d1\u5c5e
p5687
aV\u6709\u8272\u91d1\u5c5e
p5688
aV\u6709\u8272\u91d1\u5c5e
p5689
aV\u6709\u8272\u91d1\u5c5e
p5690
aV\u6709\u8272\u91d1\u5c5e
p5691
aV\u6709\u8272\u91d1\u5c5e
p5692
aV\u6709\u8272\u91d1\u5c5e
p5693
aV\u6709\u8272\u91d1\u5c5e
p5694
aV\u6709\u8272\u91d1\u5c5e
p5695
aV\u6709\u8272\u91d1\u5c5e
p5696
aV\u6709\u8272\u91d1\u5c5e
p5697
aV\u6709\u8272\u91d1\u5c5e
p5698
aV\u6709\u8272\u91d1\u5c5e
p5699
aV\u6709\u8272\u91d1\u5c5e
p5700
aV\u6709\u8272\u91d1\u5c5e
p5701
aV\u6709\u8272\u91d1\u5c5e
p5702
aV\u6709\u8272\u91d1\u5c5e
p5703
aV\u6709\u8272\u91d1\u5c5e
p5704
aV\u6709\u8272\u91d1\u5c5e
p5705
aV\u6709\u8272\u91d1\u5c5e
p5706
aV\u6709\u8272\u91d1\u5c5e
p5707
aV\u6709\u8272\u91d1\u5c5e
p5708
aV\u6709\u8272\u91d1\u5c5e
p5709
aV\u6709\u8272\u91d1\u5c5e
p5710
aV\u6709\u8272\u91d1\u5c5e
p5711
aV\u6709\u8272\u91d1\u5c5e
p5712
aV\u6709\u8272\u91d1\u5c5e
p5713
aV\u6709\u8272\u91d1\u5c5e
p5714
aV\u6709\u8272\u91d1\u5c5e
p5715
aV\u6709\u8272\u91d1\u5c5e
p5716
aV\u6709\u8272\u91d1\u5c5e
p5717
aV\u6709\u8272\u91d1\u5c5e
p5718
aV\u6709\u8272\u91d1\u5c5e
p5719
aV\u6709\u8272\u91d1\u5c5e
p5720
aV\u6709\u8272\u91d1\u5c5e
p5721
aV\u6709\u8272\u91d1\u5c5e
p5722
aV\u6709\u8272\u91d1\u5c5e
p5723
aV\u6709\u8272\u91d1\u5c5e
p5724
aV\u6709\u8272\u91d1\u5c5e
p5725
aV\u6709\u8272\u91d1\u5c5e
p5726
aV\u6709\u8272\u91d1\u5c5e
p5727
aV\u6709\u8272\u91d1\u5c5e
p5728
aV\u6709\u8272\u91d1\u5c5e
p5729
aV\u6709\u8272\u91d1\u5c5e
p5730
aV\u6709\u8272\u91d1\u5c5e
p5731
aV\u6709\u8272\u91d1\u5c5e
p5732
aV\u6709\u8272\u91d1\u5c5e
p5733
aV\u6709\u8272\u91d1\u5c5e
p5734
aV\u6709\u8272\u91d1\u5c5e
p5735
aV\u6709\u8272\u91d1\u5c5e
p5736
aV\u6709\u8272\u91d1\u5c5e
p5737
aV\u6709\u8272\u91d1\u5c5e
p5738
aV\u6709\u8272\u91d1\u5c5e
p5739
aV\u4f9b\u6c34\u4f9b\u6c14
p5740
aV\u4f9b\u6c34\u4f9b\u6c14
p5741
aV\u4f9b\u6c34\u4f9b\u6c14
p5742
aV\u4f9b\u6c34\u4f9b\u6c14
p5743
aV\u4f9b\u6c34\u4f9b\u6c14
p5744
aV\u4f9b\u6c34\u4f9b\u6c14
p5745
aV\u4f9b\u6c34\u4f9b\u6c14
p5746
aV\u4f9b\u6c34\u4f9b\u6c14
p5747
aV\u4f9b\u6c34\u4f9b\u6c14
p5748
aV\u4f9b\u6c34\u4f9b\u6c14
p5749
aV\u4f9b\u6c34\u4f9b\u6c14
p5750
aV\u4f9b\u6c34\u4f9b\u6c14
p5751
aV\u4f9b\u6c34\u4f9b\u6c14
p5752
aV\u4f9b\u6c34\u4f9b\u6c14
p5753
aV\u4f9b\u6c34\u4f9b\u6c14
p5754
aV\u4f9b\u6c34\u4f9b\u6c14
p5755
aV\u4f9b\u6c34\u4f9b\u6c14
p5756
aV\u4f9b\u6c34\u4f9b\u6c14
p5757
aV\u4f9b\u6c34\u4f9b\u6c14
p5758
aV\u4f9b\u6c34\u4f9b\u6c14
p5759
aV\u4f9b\u6c34\u4f9b\u6c14
p5760
aV\u4f9b\u6c34\u4f9b\u6c14
p5761
aV\u4f9b\u6c34\u4f9b\u6c14
p5762
aV\u4f9b\u6c34\u4f9b\u6c14
p5763
aV\u4f9b\u6c34\u4f9b\u6c14
p5764
aV\u53d1\u7535\u8bbe\u5907
p5765
aV\u53d1\u7535\u8bbe\u5907
p5766
aV\u53d1\u7535\u8bbe\u5907
p5767
aV\u53d1\u7535\u8bbe\u5907
p5768
aV\u53d1\u7535\u8bbe\u5907
p5769
aV\u53d1\u7535\u8bbe\u5907
p5770
aV\u53d1\u7535\u8bbe\u5907
p5771
aV\u53d1\u7535\u8bbe\u5907
p5772
aV\u53d1\u7535\u8bbe\u5907
p5773
aV\u53d1\u7535\u8bbe\u5907
p5774
aV\u53d1\u7535\u8bbe\u5907
p5775
aV\u53d1\u7535\u8bbe\u5907
p5776
aV\u53d1\u7535\u8bbe\u5907
p5777
aV\u53d1\u7535\u8bbe\u5907
p5778
aV\u53d1\u7535\u8bbe\u5907
p5779
aV\u53d1\u7535\u8bbe\u5907
p5780
aV\u53d1\u7535\u8bbe\u5907
p5781
aV\u53d1\u7535\u8bbe\u5907
p5782
aV\u53d1\u7535\u8bbe\u5907
p5783
aV\u53d1\u7535\u8bbe\u5907
p5784
aV\u53d1\u7535\u8bbe\u5907
p5785
aV\u53d1\u7535\u8bbe\u5907
p5786
aV\u53d1\u7535\u8bbe\u5907
p5787
aV\u53d1\u7535\u8bbe\u5907
p5788
aV\u53d1\u7535\u8bbe\u5907
p5789
aV\u53d1\u7535\u8bbe\u5907
p5790
aV\u53d1\u7535\u8bbe\u5907
p5791
aV\u53d1\u7535\u8bbe\u5907
p5792
aV\u53d1\u7535\u8bbe\u5907
p5793
aV\u53d1\u7535\u8bbe\u5907
p5794
aV\u53d1\u7535\u8bbe\u5907
p5795
aV\u53d1\u7535\u8bbe\u5907
p5796
aV\u53d1\u7535\u8bbe\u5907
p5797
aV\u53d1\u7535\u8bbe\u5907
p5798
aV\u53d1\u7535\u8bbe\u5907
p5799
aV\u53d1\u7535\u8bbe\u5907
p5800
aV\u53d1\u7535\u8bbe\u5907
p5801
aV\u53d1\u7535\u8bbe\u5907
p5802
aV\u53d1\u7535\u8bbe\u5907
p5803
aV\u53d1\u7535\u8bbe\u5907
p5804
aV\u53d1\u7535\u8bbe\u5907
p5805
aV\u53d1\u7535\u8bbe\u5907
p5806
aV\u53d1\u7535\u8bbe\u5907
p5807
aV\u53d1\u7535\u8bbe\u5907
p5808
aV\u53d1\u7535\u8bbe\u5907
p5809
aV\u53d1\u7535\u8bbe\u5907
p5810
aV\u53d1\u7535\u8bbe\u5907
p5811
aV\u53d1\u7535\u8bbe\u5907
p5812
aV\u53d1\u7535\u8bbe\u5907
p5813
aV\u53d1\u7535\u8bbe\u5907
p5814
aV\u53d1\u7535\u8bbe\u5907
p5815
aV\u53d1\u7535\u8bbe\u5907
p5816
aV\u53d1\u7535\u8bbe\u5907
p5817
aV\u53d1\u7535\u8bbe\u5907
p5818
aV\u53d1\u7535\u8bbe\u5907
p5819
aV\u53d1\u7535\u8bbe\u5907
p5820
aV\u53d1\u7535\u8bbe\u5907
p5821
aV\u53d1\u7535\u8bbe\u5907
p5822
aV\u53d1\u7535\u8bbe\u5907
p5823
aV\u53d1\u7535\u8bbe\u5907
p5824
aV\u53d1\u7535\u8bbe\u5907
p5825
aV\u53d1\u7535\u8bbe\u5907
p5826
aV\u53d1\u7535\u8bbe\u5907
p5827
aV\u53d1\u7535\u8bbe\u5907
p5828
aV\u53d1\u7535\u8bbe\u5907
p5829
aV\u9020\u7eb8\u884c\u4e1a
p5830
aV\u9020\u7eb8\u884c\u4e1a
p5831
aV\u9020\u7eb8\u884c\u4e1a
p5832
aV\u9020\u7eb8\u884c\u4e1a
p5833
aV\u9020\u7eb8\u884c\u4e1a
p5834
aV\u9020\u7eb8\u884c\u4e1a
p5835
aV\u9020\u7eb8\u884c\u4e1a
p5836
aV\u9020\u7eb8\u884c\u4e1a
p5837
aV\u9020\u7eb8\u884c\u4e1a
p5838
aV\u9020\u7eb8\u884c\u4e1a
p5839
aV\u9020\u7eb8\u884c\u4e1a
p5840
aV\u9020\u7eb8\u884c\u4e1a
p5841
aV\u9020\u7eb8\u884c\u4e1a
p5842
aV\u9020\u7eb8\u884c\u4e1a
p5843
aV\u9020\u7eb8\u884c\u4e1a
p5844
aV\u9020\u7eb8\u884c\u4e1a
p5845
aV\u9020\u7eb8\u884c\u4e1a
p5846
aV\u9020\u7eb8\u884c\u4e1a
p5847
aV\u9020\u7eb8\u884c\u4e1a
p5848
aV\u9020\u7eb8\u884c\u4e1a
p5849
aV\u9020\u7eb8\u884c\u4e1a
p5850
aV\u9020\u7eb8\u884c\u4e1a
p5851
aV\u9020\u7eb8\u884c\u4e1a
p5852
aV\u9020\u7eb8\u884c\u4e1a
p5853
aV\u8239\u8236\u5236\u9020
p5854
aV\u8239\u8236\u5236\u9020
p5855
aV\u8239\u8236\u5236\u9020
p5856
aV\u8239\u8236\u5236\u9020
p5857
aV\u8239\u8236\u5236\u9020
p5858
aV\u8239\u8236\u5236\u9020
p5859
aV\u8239\u8236\u5236\u9020
p5860
aV\u8239\u8236\u5236\u9020
p5861
aV\u7164\u70ad\u884c\u4e1a
p5862
aV\u7164\u70ad\u884c\u4e1a
p5863
aV\u7164\u70ad\u884c\u4e1a
p5864
aV\u7164\u70ad\u884c\u4e1a
p5865
aV\u7164\u70ad\u884c\u4e1a
p5866
aV\u7164\u70ad\u884c\u4e1a
p5867
aV\u7164\u70ad\u884c\u4e1a
p5868
aV\u7164\u70ad\u884c\u4e1a
p5869
aV\u7164\u70ad\u884c\u4e1a
p5870
aV\u7164\u70ad\u884c\u4e1a
p5871
aV\u7164\u70ad\u884c\u4e1a
p5872
aV\u7164\u70ad\u884c\u4e1a
p5873
aV\u7164\u70ad\u884c\u4e1a
p5874
aV\u7164\u70ad\u884c\u4e1a
p5875
aV\u7164\u70ad\u884c\u4e1a
p5876
aV\u7164\u70ad\u884c\u4e1a
p5877
aV\u7164\u70ad\u884c\u4e1a
p5878
aV\u7164\u70ad\u884c\u4e1a
p5879
aV\u7164\u70ad\u884c\u4e1a
p5880
aV\u7164\u70ad\u884c\u4e1a
p5881
aV\u7164\u70ad\u884c\u4e1a
p5882
aV\u7164\u70ad\u884c\u4e1a
p5883
aV\u7164\u70ad\u884c\u4e1a
p5884
aV\u7164\u70ad\u884c\u4e1a
p5885
aV\u7164\u70ad\u884c\u4e1a
p5886
aV\u7164\u70ad\u884c\u4e1a
p5887
aV\u7164\u70ad\u884c\u4e1a
p5888
aV\u7164\u70ad\u884c\u4e1a
p5889
aV\u7164\u70ad\u884c\u4e1a
p5890
aV\u7164\u70ad\u884c\u4e1a
p5891
aV\u7164\u70ad\u884c\u4e1a
p5892
aV\u7164\u70ad\u884c\u4e1a
p5893
aV\u7164\u70ad\u884c\u4e1a
p5894
aV\u7164\u70ad\u884c\u4e1a
p5895
aV\u7164\u70ad\u884c\u4e1a
p5896
aV\u7164\u70ad\u884c\u4e1a
p5897
aV\u7164\u70ad\u884c\u4e1a
p5898
aV\u7164\u70ad\u884c\u4e1a
p5899
aV\u7164\u70ad\u884c\u4e1a
p5900
aV\u7164\u70ad\u884c\u4e1a
p5901
aV\u7164\u70ad\u884c\u4e1a
p5902
aV\u98df\u54c1\u884c\u4e1a
p5903
aV\u98df\u54c1\u884c\u4e1a
p5904
aV\u98df\u54c1\u884c\u4e1a
p5905
aV\u98df\u54c1\u884c\u4e1a
p5906
aV\u98df\u54c1\u884c\u4e1a
p5907
aV\u98df\u54c1\u884c\u4e1a
p5908
aV\u98df\u54c1\u884c\u4e1a
p5909
aV\u98df\u54c1\u884c\u4e1a
p5910
aV\u98df\u54c1\u884c\u4e1a
p5911
aV\u98df\u54c1\u884c\u4e1a
p5912
aV\u98df\u54c1\u884c\u4e1a
p5913
aV\u98df\u54c1\u884c\u4e1a
p5914
aV\u98df\u54c1\u884c\u4e1a
p5915
aV\u98df\u54c1\u884c\u4e1a
p5916
aV\u98df\u54c1\u884c\u4e1a
p5917
aV\u98df\u54c1\u884c\u4e1a
p5918
aV\u98df\u54c1\u884c\u4e1a
p5919
aV\u98df\u54c1\u884c\u4e1a
p5920
aV\u98df\u54c1\u884c\u4e1a
p5921
aV\u98df\u54c1\u884c\u4e1a
p5922
aV\u98df\u54c1\u884c\u4e1a
p5923
aV\u98df\u54c1\u884c\u4e1a
p5924
aV\u98df\u54c1\u884c\u4e1a
p5925
aV\u98df\u54c1\u884c\u4e1a
p5926
aV\u98df\u54c1\u884c\u4e1a
p5927
aV\u98df\u54c1\u884c\u4e1a
p5928
aV\u98df\u54c1\u884c\u4e1a
p5929
aV\u98df\u54c1\u884c\u4e1a
p5930
aV\u98df\u54c1\u884c\u4e1a
p5931
aV\u98df\u54c1\u884c\u4e1a
p5932
aV\u98df\u54c1\u884c\u4e1a
p5933
aV\u98df\u54c1\u884c\u4e1a
p5934
aV\u98df\u54c1\u884c\u4e1a
p5935
aV\u98df\u54c1\u884c\u4e1a
p5936
aV\u98df\u54c1\u884c\u4e1a
p5937
aV\u98df\u54c1\u884c\u4e1a
p5938
aV\u98df\u54c1\u884c\u4e1a
p5939
aV\u98df\u54c1\u884c\u4e1a
p5940
aV\u98df\u54c1\u884c\u4e1a
p5941
aV\u98df\u54c1\u884c\u4e1a
p5942
aV\u98df\u54c1\u884c\u4e1a
p5943
aV\u98df\u54c1\u884c\u4e1a
p5944
aV\u98df\u54c1\u884c\u4e1a
p5945
aV\u98df\u54c1\u884c\u4e1a
p5946
aV\u98df\u54c1\u884c\u4e1a
p5947
aV\u98df\u54c1\u884c\u4e1a
p5948
aV\u98df\u54c1\u884c\u4e1a
p5949
aV\u98df\u54c1\u884c\u4e1a
p5950
aV\u98df\u54c1\u884c\u4e1a
p5951
aV\u98df\u54c1\u884c\u4e1a
p5952
aV\u98df\u54c1\u884c\u4e1a
p5953
aV\u98df\u54c1\u884c\u4e1a
p5954
aV\u98df\u54c1\u884c\u4e1a
p5955
aV\u98df\u54c1\u884c\u4e1a
p5956
aV\u98df\u54c1\u884c\u4e1a
p5957
aV\u98df\u54c1\u884c\u4e1a
p5958
aV\u98df\u54c1\u884c\u4e1a
p5959
aV\u98df\u54c1\u884c\u4e1a
p5960
aV\u9676\u74f7\u884c\u4e1a
p5961
aV\u9676\u74f7\u884c\u4e1a
p5962
aV\u9676\u74f7\u884c\u4e1a
p5963
aV\u9676\u74f7\u884c\u4e1a
p5964
aV\u9676\u74f7\u884c\u4e1a
p5965
aV\u9676\u74f7\u884c\u4e1a
p5966
aV\u9676\u74f7\u884c\u4e1a
p5967
aV\u9676\u74f7\u884c\u4e1a
p5968
aV\u7eba\u7ec7\u673a\u68b0
p5969
aV\u7eba\u7ec7\u673a\u68b0
p5970
aV\u7eba\u7ec7\u673a\u68b0
p5971
aV\u7eba\u7ec7\u673a\u68b0
p5972
aV\u7eba\u7ec7\u673a\u68b0
p5973
aV\u7eba\u7ec7\u673a\u68b0
p5974
aV\u7eba\u7ec7\u673a\u68b0
p5975
aV\u7eba\u7ec7\u673a\u68b0
p5976
aV\u94a2\u94c1\u884c\u4e1a
p5977
aV\u94a2\u94c1\u884c\u4e1a
p5978
aV\u94a2\u94c1\u884c\u4e1a
p5979
aV\u94a2\u94c1\u884c\u4e1a
p5980
aV\u94a2\u94c1\u884c\u4e1a
p5981
aV\u94a2\u94c1\u884c\u4e1a
p5982
aV\u94a2\u94c1\u884c\u4e1a
p5983
aV\u94a2\u94c1\u884c\u4e1a
p5984
aV\u94a2\u94c1\u884c\u4e1a
p5985
aV\u94a2\u94c1\u884c\u4e1a
p5986
aV\u94a2\u94c1\u884c\u4e1a
p5987
aV\u94a2\u94c1\u884c\u4e1a
p5988
aV\u94a2\u94c1\u884c\u4e1a
p5989
aV\u94a2\u94c1\u884c\u4e1a
p5990
aV\u94a2\u94c1\u884c\u4e1a
p5991
aV\u94a2\u94c1\u884c\u4e1a
p5992
aV\u94a2\u94c1\u884c\u4e1a
p5993
aV\u94a2\u94c1\u884c\u4e1a
p5994
aV\u94a2\u94c1\u884c\u4e1a
p5995
aV\u94a2\u94c1\u884c\u4e1a
p5996
aV\u94a2\u94c1\u884c\u4e1a
p5997
aV\u94a2\u94c1\u884c\u4e1a
p5998
aV\u94a2\u94c1\u884c\u4e1a
p5999
aV\u94a2\u94c1\u884c\u4e1a
p6000
aV\u94a2\u94c1\u884c\u4e1a
p6001
aV\u94a2\u94c1\u884c\u4e1a
p6002
aV\u94a2\u94c1\u884c\u4e1a
p6003
aV\u94a2\u94c1\u884c\u4e1a
p6004
aV\u94a2\u94c1\u884c\u4e1a
p6005
aV\u94a2\u94c1\u884c\u4e1a
p6006
aV\u94a2\u94c1\u884c\u4e1a
p6007
aV\u94a2\u94c1\u884c\u4e1a
p6008
aV\u94a2\u94c1\u884c\u4e1a
p6009
aV\u94a2\u94c1\u884c\u4e1a
p6010
aV\u94a2\u94c1\u884c\u4e1a
p6011
aV\u94a2\u94c1\u884c\u4e1a
p6012
aV\u94a2\u94c1\u884c\u4e1a
p6013
aV\u94a2\u94c1\u884c\u4e1a
p6014
aV\u94a2\u94c1\u884c\u4e1a
p6015
aV\u94a2\u94c1\u884c\u4e1a
p6016
aV\u94a2\u94c1\u884c\u4e1a
p6017
aV\u94a2\u94c1\u884c\u4e1a
p6018
aV\u94a2\u94c1\u884c\u4e1a
p6019
aV\u94a2\u94c1\u884c\u4e1a
p6020
aV\u94a2\u94c1\u884c\u4e1a
p6021
aV\u94a2\u94c1\u884c\u4e1a
p6022
aV\u94a2\u94c1\u884c\u4e1a
p6023
aV\u94a2\u94c1\u884c\u4e1a
p6024
aV\u94a2\u94c1\u884c\u4e1a
p6025
aV\u94a2\u94c1\u884c\u4e1a
p6026
aV\u94a2\u94c1\u884c\u4e1a
p6027
aV\u94a2\u94c1\u884c\u4e1a
p6028
aV\u94a2\u94c1\u884c\u4e1a
p6029
aV\u94a2\u94c1\u884c\u4e1a
p6030
aV\u94a2\u94c1\u884c\u4e1a
p6031
aV\u94a2\u94c1\u884c\u4e1a
p6032
aV\u94a2\u94c1\u884c\u4e1a
p6033
aV\u94a2\u94c1\u884c\u4e1a
p6034
aV\u94a2\u94c1\u884c\u4e1a
p6035
aV\u94a2\u94c1\u884c\u4e1a
p6036
aV\u73af\u4fdd\u884c\u4e1a
p6037
aV\u73af\u4fdd\u884c\u4e1a
p6038
aV\u73af\u4fdd\u884c\u4e1a
p6039
aV\u73af\u4fdd\u884c\u4e1a
p6040
aV\u73af\u4fdd\u884c\u4e1a
p6041
aV\u73af\u4fdd\u884c\u4e1a
p6042
aV\u73af\u4fdd\u884c\u4e1a
p6043
aV\u73af\u4fdd\u884c\u4e1a
p6044
aV\u73af\u4fdd\u884c\u4e1a
p6045
aV\u73af\u4fdd\u884c\u4e1a
p6046
aV\u73af\u4fdd\u884c\u4e1a
p6047
aV\u73af\u4fdd\u884c\u4e1a
p6048
aV\u73af\u4fdd\u884c\u4e1a
p6049
aV\u73af\u4fdd\u884c\u4e1a
p6050
aV\u73af\u4fdd\u884c\u4e1a
p6051
aV\u73af\u4fdd\u884c\u4e1a
p6052
aV\u73af\u4fdd\u884c\u4e1a
p6053
aV\u73af\u4fdd\u884c\u4e1a
p6054
aV\u73af\u4fdd\u884c\u4e1a
p6055
aV\u73af\u4fdd\u884c\u4e1a
p6056
aV\u73af\u4fdd\u884c\u4e1a
p6057
aV\u73af\u4fdd\u884c\u4e1a
p6058
aV\u73af\u4fdd\u884c\u4e1a
p6059
aV\u73af\u4fdd\u884c\u4e1a
p6060
aV\u73af\u4fdd\u884c\u4e1a
p6061
aV\u73af\u4fdd\u884c\u4e1a
p6062
aV\u73af\u4fdd\u884c\u4e1a
p6063
aV\u917f\u9152\u884c\u4e1a
p6064
aV\u917f\u9152\u884c\u4e1a
p6065
aV\u917f\u9152\u884c\u4e1a
p6066
aV\u917f\u9152\u884c\u4e1a
p6067
aV\u917f\u9152\u884c\u4e1a
p6068
aV\u917f\u9152\u884c\u4e1a
p6069
aV\u917f\u9152\u884c\u4e1a
p6070
aV\u917f\u9152\u884c\u4e1a
p6071
aV\u917f\u9152\u884c\u4e1a
p6072
aV\u917f\u9152\u884c\u4e1a
p6073
aV\u917f\u9152\u884c\u4e1a
p6074
aV\u917f\u9152\u884c\u4e1a
p6075
aV\u917f\u9152\u884c\u4e1a
p6076
aV\u917f\u9152\u884c\u4e1a
p6077
aV\u917f\u9152\u884c\u4e1a
p6078
aV\u917f\u9152\u884c\u4e1a
p6079
aV\u917f\u9152\u884c\u4e1a
p6080
aV\u917f\u9152\u884c\u4e1a
p6081
aV\u917f\u9152\u884c\u4e1a
p6082
aV\u917f\u9152\u884c\u4e1a
p6083
aV\u917f\u9152\u884c\u4e1a
p6084
aV\u917f\u9152\u884c\u4e1a
p6085
aV\u917f\u9152\u884c\u4e1a
p6086
aV\u917f\u9152\u884c\u4e1a
p6087
aV\u917f\u9152\u884c\u4e1a
p6088
aV\u917f\u9152\u884c\u4e1a
p6089
aV\u917f\u9152\u884c\u4e1a
p6090
aV\u917f\u9152\u884c\u4e1a
p6091
aV\u917f\u9152\u884c\u4e1a
p6092
aV\u917f\u9152\u884c\u4e1a
p6093
aV\u917f\u9152\u884c\u4e1a
p6094
aV\u917f\u9152\u884c\u4e1a
p6095
aV\u917f\u9152\u884c\u4e1a
p6096
aV\u6b21\u65b0\u80a1
p6097
aV\u6b21\u65b0\u80a1
p6098
aV\u6b21\u65b0\u80a1
p6099
aV\u6b21\u65b0\u80a1
p6100
aV\u6b21\u65b0\u80a1
p6101
aV\u6b21\u65b0\u80a1
p6102
aV\u6b21\u65b0\u80a1
p6103
aV\u6b21\u65b0\u80a1
p6104
aV\u6b21\u65b0\u80a1
p6105
aV\u6b21\u65b0\u80a1
p6106
aV\u6b21\u65b0\u80a1
p6107
aV\u6b21\u65b0\u80a1
p6108
aV\u6b21\u65b0\u80a1
p6109
aV\u6b21\u65b0\u80a1
p6110
aV\u6b21\u65b0\u80a1
p6111
aV\u6b21\u65b0\u80a1
p6112
aV\u6b21\u65b0\u80a1
p6113
aV\u6b21\u65b0\u80a1
p6114
aV\u6b21\u65b0\u80a1
p6115
aV\u6b21\u65b0\u80a1
p6116
aV\u6b21\u65b0\u80a1
p6117
aV\u6b21\u65b0\u80a1
p6118
aV\u6b21\u65b0\u80a1
p6119
aV\u6b21\u65b0\u80a1
p6120
aV\u6b21\u65b0\u80a1
p6121
aV\u6b21\u65b0\u80a1
p6122
aV\u6b21\u65b0\u80a1
p6123
aV\u6b21\u65b0\u80a1
p6124
aV\u6b21\u65b0\u80a1
p6125
aV\u6b21\u65b0\u80a1
p6126
aV\u6b21\u65b0\u80a1
p6127
aV\u6b21\u65b0\u80a1
p6128
aV\u6b21\u65b0\u80a1
p6129
aV\u6b21\u65b0\u80a1
p6130
aV\u6b21\u65b0\u80a1
p6131
aV\u6b21\u65b0\u80a1
p6132
aV\u6b21\u65b0\u80a1
p6133
aV\u6b21\u65b0\u80a1
p6134
aV\u6b21\u65b0\u80a1
p6135
aV\u6b21\u65b0\u80a1
p6136
aV\u6b21\u65b0\u80a1
p6137
aV\u6b21\u65b0\u80a1
p6138
aV\u6b21\u65b0\u80a1
p6139
aV\u6b21\u65b0\u80a1
p6140
aV\u6b21\u65b0\u80a1
p6141
aV\u6b21\u65b0\u80a1
p6142
aV\u6b21\u65b0\u80a1
p6143
aV\u6b21\u65b0\u80a1
p6144
aV\u6b21\u65b0\u80a1
p6145
aV\u6b21\u65b0\u80a1
p6146
aV\u6b21\u65b0\u80a1
p6147
aV\u6b21\u65b0\u80a1
p6148
aV\u6b21\u65b0\u80a1
p6149
aV\u6b21\u65b0\u80a1
p6150
aV\u6b21\u65b0\u80a1
p6151
aV\u6b21\u65b0\u80a1
p6152
aV\u6b21\u65b0\u80a1
p6153
aV\u6b21\u65b0\u80a1
p6154
aV\u6b21\u65b0\u80a1
p6155
aV\u6b21\u65b0\u80a1
p6156
aV\u6b21\u65b0\u80a1
p6157
aV\u6b21\u65b0\u80a1
p6158
aV\u6b21\u65b0\u80a1
p6159
aV\u6b21\u65b0\u80a1
p6160
aV\u6b21\u65b0\u80a1
p6161
aV\u6b21\u65b0\u80a1
p6162
aV\u6b21\u65b0\u80a1
p6163
aV\u6b21\u65b0\u80a1
p6164
aV\u6b21\u65b0\u80a1
p6165
aV\u6b21\u65b0\u80a1
p6166
aV\u6b21\u65b0\u80a1
p6167
aV\u7535\u5668\u884c\u4e1a
p6168
aV\u7535\u5668\u884c\u4e1a
p6169
aV\u7535\u5668\u884c\u4e1a
p6170
aV\u7535\u5668\u884c\u4e1a
p6171
aV\u7535\u5668\u884c\u4e1a
p6172
aV\u7535\u5668\u884c\u4e1a
p6173
aV\u7535\u5668\u884c\u4e1a
p6174
aV\u7535\u5668\u884c\u4e1a
p6175
aV\u7535\u5668\u884c\u4e1a
p6176
aV\u7535\u5668\u884c\u4e1a
p6177
aV\u7535\u5668\u884c\u4e1a
p6178
aV\u7535\u5668\u884c\u4e1a
p6179
aV\u7535\u5668\u884c\u4e1a
p6180
aV\u7535\u5668\u884c\u4e1a
p6181
aV\u7535\u5668\u884c\u4e1a
p6182
aV\u7535\u5668\u884c\u4e1a
p6183
aV\u7535\u5668\u884c\u4e1a
p6184
aV\u7535\u5668\u884c\u4e1a
p6185
aV\u7535\u5668\u884c\u4e1a
p6186
aV\u7535\u5668\u884c\u4e1a
p6187
aV\u7535\u5668\u884c\u4e1a
p6188
aV\u7535\u5668\u884c\u4e1a
p6189
aV\u7535\u5668\u884c\u4e1a
p6190
aV\u7535\u5668\u884c\u4e1a
p6191
aV\u7535\u5668\u884c\u4e1a
p6192
aV\u7535\u5668\u884c\u4e1a
p6193
aV\u7535\u5668\u884c\u4e1a
p6194
aV\u7535\u5668\u884c\u4e1a
p6195
aV\u7535\u5668\u884c\u4e1a
p6196
aV\u7535\u5668\u884c\u4e1a
p6197
aV\u7535\u5668\u884c\u4e1a
p6198
aV\u7535\u5668\u884c\u4e1a
p6199
aV\u7535\u5668\u884c\u4e1a
p6200
aV\u7535\u5668\u884c\u4e1a
p6201
aV\u7535\u5668\u884c\u4e1a
p6202
aV\u7535\u5668\u884c\u4e1a
p6203
aV\u7535\u5668\u884c\u4e1a
p6204
aV\u7535\u5668\u884c\u4e1a
p6205
aV\u7535\u5668\u884c\u4e1a
p6206
aV\u7535\u5668\u884c\u4e1a
p6207
aV\u7535\u5668\u884c\u4e1a
p6208
aV\u7535\u5668\u884c\u4e1a
p6209
aV\u7535\u5668\u884c\u4e1a
p6210
aV\u7535\u5668\u884c\u4e1a
p6211
aV\u7535\u5668\u884c\u4e1a
p6212
aV\u7535\u5668\u884c\u4e1a
p6213
aV\u7535\u5668\u884c\u4e1a
p6214
aV\u7535\u5668\u884c\u4e1a
p6215
aV\u7535\u5668\u884c\u4e1a
p6216
aV\u7535\u5668\u884c\u4e1a
p6217
aV\u7535\u5668\u884c\u4e1a
p6218
aV\u7535\u5668\u884c\u4e1a
p6219
aV\u7535\u5668\u884c\u4e1a
p6220
aV\u7535\u5668\u884c\u4e1a
p6221
aV\u7535\u5668\u884c\u4e1a
p6222
aV\u7535\u5668\u884c\u4e1a
p6223
aV\u7535\u5668\u884c\u4e1a
p6224
aV\u7535\u5668\u884c\u4e1a
p6225
aV\u4f20\u5a92\u5a31\u4e50
p6226
aV\u4f20\u5a92\u5a31\u4e50
p6227
aV\u4f20\u5a92\u5a31\u4e50
p6228
aV\u4f20\u5a92\u5a31\u4e50
p6229
aV\u4f20\u5a92\u5a31\u4e50
p6230
aV\u4f20\u5a92\u5a31\u4e50
p6231
aV\u4f20\u5a92\u5a31\u4e50
p6232
aV\u4f20\u5a92\u5a31\u4e50
p6233
aV\u4f20\u5a92\u5a31\u4e50
p6234
aV\u4f20\u5a92\u5a31\u4e50
p6235
aV\u4f20\u5a92\u5a31\u4e50
p6236
aV\u4f20\u5a92\u5a31\u4e50
p6237
aV\u4f20\u5a92\u5a31\u4e50
p6238
aV\u4f20\u5a92\u5a31\u4e50
p6239
aV\u4f20\u5a92\u5a31\u4e50
p6240
aV\u4f20\u5a92\u5a31\u4e50
p6241
aV\u4f20\u5a92\u5a31\u4e50
p6242
aV\u4f20\u5a92\u5a31\u4e50
p6243
aV\u4f20\u5a92\u5a31\u4e50
p6244
aV\u4f20\u5a92\u5a31\u4e50
p6245
aV\u4f20\u5a92\u5a31\u4e50
p6246
aV\u4f20\u5a92\u5a31\u4e50
p6247
aV\u4f20\u5a92\u5a31\u4e50
p6248
aV\u4f20\u5a92\u5a31\u4e50
p6249
aV\u4f20\u5a92\u5a31\u4e50
p6250
aV\u4f20\u5a92\u5a31\u4e50
p6251
aV\u4f20\u5a92\u5a31\u4e50
p6252
aV\u4f20\u5a92\u5a31\u4e50
p6253
aV\u4f20\u5a92\u5a31\u4e50
p6254
aV\u4f20\u5a92\u5a31\u4e50
p6255
aV\u4f20\u5a92\u5a31\u4e50
p6256
aV\u4f20\u5a92\u5a31\u4e50
p6257
aV\u4f20\u5a92\u5a31\u4e50
p6258
aV\u4f20\u5a92\u5a31\u4e50
p6259
aV\u4f20\u5a92\u5a31\u4e50
p6260
aV\u4f20\u5a92\u5a31\u4e50
p6261
aV\u4f20\u5a92\u5a31\u4e50
p6262
aV\u4f20\u5a92\u5a31\u4e50
p6263
aV\u4f20\u5a92\u5a31\u4e50
p6264
aV\u4f20\u5a92\u5a31\u4e50
p6265
aV\u5316\u5de5\u884c\u4e1a
p6266
aV\u5316\u5de5\u884c\u4e1a
p6267
aV\u5316\u5de5\u884c\u4e1a
p6268
aV\u5316\u5de5\u884c\u4e1a
p6269
aV\u5316\u5de5\u884c\u4e1a
p6270
aV\u5316\u5de5\u884c\u4e1a
p6271
aV\u5316\u5de5\u884c\u4e1a
p6272
aV\u5316\u5de5\u884c\u4e1a
p6273
aV\u5316\u5de5\u884c\u4e1a
p6274
aV\u5316\u5de5\u884c\u4e1a
p6275
aV\u5316\u5de5\u884c\u4e1a
p6276
aV\u5316\u5de5\u884c\u4e1a
p6277
aV\u5316\u5de5\u884c\u4e1a
p6278
aV\u5316\u5de5\u884c\u4e1a
p6279
aV\u5316\u5de5\u884c\u4e1a
p6280
aV\u5316\u5de5\u884c\u4e1a
p6281
aV\u5316\u5de5\u884c\u4e1a
p6282
aV\u5316\u5de5\u884c\u4e1a
p6283
aV\u5316\u5de5\u884c\u4e1a
p6284
aV\u5316\u5de5\u884c\u4e1a
p6285
aV\u5316\u5de5\u884c\u4e1a
p6286
aV\u5316\u5de5\u884c\u4e1a
p6287
aV\u5316\u5de5\u884c\u4e1a
p6288
aV\u5316\u5de5\u884c\u4e1a
p6289
aV\u5316\u5de5\u884c\u4e1a
p6290
aV\u5316\u5de5\u884c\u4e1a
p6291
aV\u5316\u5de5\u884c\u4e1a
p6292
aV\u5316\u5de5\u884c\u4e1a
p6293
aV\u5316\u5de5\u884c\u4e1a
p6294
aV\u5316\u5de5\u884c\u4e1a
p6295
aV\u5316\u5de5\u884c\u4e1a
p6296
aV\u5316\u5de5\u884c\u4e1a
p6297
aV\u5316\u5de5\u884c\u4e1a
p6298
aV\u5316\u5de5\u884c\u4e1a
p6299
aV\u5316\u5de5\u884c\u4e1a
p6300
aV\u5316\u5de5\u884c\u4e1a
p6301
aV\u5316\u5de5\u884c\u4e1a
p6302
aV\u5316\u5de5\u884c\u4e1a
p6303
aV\u5316\u5de5\u884c\u4e1a
p6304
aV\u5316\u5de5\u884c\u4e1a
p6305
aV\u5316\u5de5\u884c\u4e1a
p6306
aV\u5316\u5de5\u884c\u4e1a
p6307
aV\u5316\u5de5\u884c\u4e1a
p6308
aV\u5316\u5de5\u884c\u4e1a
p6309
aV\u5316\u5de5\u884c\u4e1a
p6310
aV\u5316\u5de5\u884c\u4e1a
p6311
aV\u5316\u5de5\u884c\u4e1a
p6312
aV\u5316\u5de5\u884c\u4e1a
p6313
aV\u5316\u5de5\u884c\u4e1a
p6314
aV\u5316\u5de5\u884c\u4e1a
p6315
aV\u5316\u5de5\u884c\u4e1a
p6316
aV\u5316\u5de5\u884c\u4e1a
p6317
aV\u5316\u5de5\u884c\u4e1a
p6318
aV\u5316\u5de5\u884c\u4e1a
p6319
aV\u5316\u5de5\u884c\u4e1a
p6320
aV\u5316\u5de5\u884c\u4e1a
p6321
aV\u5316\u5de5\u884c\u4e1a
p6322
aV\u5316\u5de5\u884c\u4e1a
p6323
aV\u5316\u5de5\u884c\u4e1a
p6324
aV\u5316\u5de5\u884c\u4e1a
p6325
aV\u5316\u5de5\u884c\u4e1a
p6326
aV\u5316\u5de5\u884c\u4e1a
p6327
aV\u5316\u5de5\u884c\u4e1a
p6328
aV\u5316\u5de5\u884c\u4e1a
p6329
aV\u5316\u5de5\u884c\u4e1a
p6330
aV\u5316\u5de5\u884c\u4e1a
p6331
aV\u5316\u5de5\u884c\u4e1a
p6332
aV\u5316\u5de5\u884c\u4e1a
p6333
aV\u5316\u5de5\u884c\u4e1a
p6334
aV\u5316\u5de5\u884c\u4e1a
p6335
aV\u5316\u5de5\u884c\u4e1a
p6336
aV\u5316\u5de5\u884c\u4e1a
p6337
aV\u5316\u5de5\u884c\u4e1a
p6338
aV\u5316\u5de5\u884c\u4e1a
p6339
aV\u5316\u5de5\u884c\u4e1a
p6340
aV\u5316\u5de5\u884c\u4e1a
p6341
aV\u5316\u5de5\u884c\u4e1a
p6342
aV\u5316\u5de5\u884c\u4e1a
p6343
aV\u5316\u5de5\u884c\u4e1a
p6344
aV\u5316\u5de5\u884c\u4e1a
p6345
aV\u5316\u5de5\u884c\u4e1a
p6346
aV\u5316\u5de5\u884c\u4e1a
p6347
aV\u5316\u5de5\u884c\u4e1a
p6348
aV\u5316\u5de5\u884c\u4e1a
p6349
aV\u5316\u5de5\u884c\u4e1a
p6350
aV\u5316\u5de5\u884c\u4e1a
p6351
aV\u5316\u5de5\u884c\u4e1a
p6352
aV\u5316\u5de5\u884c\u4e1a
p6353
aV\u5316\u5de5\u884c\u4e1a
p6354
aV\u5316\u5de5\u884c\u4e1a
p6355
aV\u5316\u5de5\u884c\u4e1a
p6356
aV\u5316\u5de5\u884c\u4e1a
p6357
aV\u5316\u5de5\u884c\u4e1a
p6358
aV\u5316\u5de5\u884c\u4e1a
p6359
aV\u5316\u5de5\u884c\u4e1a
p6360
aV\u5316\u5de5\u884c\u4e1a
p6361
aV\u5316\u5de5\u884c\u4e1a
p6362
aV\u5316\u5de5\u884c\u4e1a
p6363
aV\u5316\u5de5\u884c\u4e1a
p6364
aV\u5316\u5de5\u884c\u4e1a
p6365
aV\u623f\u5730\u4ea7
p6366
aV\u623f\u5730\u4ea7
p6367
aV\u623f\u5730\u4ea7
p6368
aV\u623f\u5730\u4ea7
p6369
aV\u623f\u5730\u4ea7
p6370
aV\u623f\u5730\u4ea7
p6371
aV\u623f\u5730\u4ea7
p6372
aV\u623f\u5730\u4ea7
p6373
aV\u623f\u5730\u4ea7
p6374
aV\u623f\u5730\u4ea7
p6375
aV\u623f\u5730\u4ea7
p6376
aV\u623f\u5730\u4ea7
p6377
aV\u623f\u5730\u4ea7
p6378
aV\u623f\u5730\u4ea7
p6379
aV\u623f\u5730\u4ea7
p6380
aV\u623f\u5730\u4ea7
p6381
aV\u623f\u5730\u4ea7
p6382
aV\u623f\u5730\u4ea7
p6383
aV\u623f\u5730\u4ea7
p6384
aV\u623f\u5730\u4ea7
p6385
aV\u623f\u5730\u4ea7
p6386
aV\u623f\u5730\u4ea7
p6387
aV\u623f\u5730\u4ea7
p6388
aV\u623f\u5730\u4ea7
p6389
aV\u623f\u5730\u4ea7
p6390
aV\u623f\u5730\u4ea7
p6391
aV\u623f\u5730\u4ea7
p6392
aV\u623f\u5730\u4ea7
p6393
aV\u623f\u5730\u4ea7
p6394
aV\u623f\u5730\u4ea7
p6395
aV\u623f\u5730\u4ea7
p6396
aV\u623f\u5730\u4ea7
p6397
aV\u623f\u5730\u4ea7
p6398
aV\u623f\u5730\u4ea7
p6399
aV\u623f\u5730\u4ea7
p6400
aV\u623f\u5730\u4ea7
p6401
aV\u623f\u5730\u4ea7
p6402
aV\u623f\u5730\u4ea7
p6403
aV\u623f\u5730\u4ea7
p6404
aV\u623f\u5730\u4ea7
p6405
aV\u623f\u5730\u4ea7
p6406
aV\u623f\u5730\u4ea7
p6407
aV\u623f\u5730\u4ea7
p6408
aV\u623f\u5730\u4ea7
p6409
aV\u623f\u5730\u4ea7
p6410
aV\u623f\u5730\u4ea7
p6411
aV\u623f\u5730\u4ea7
p6412
aV\u623f\u5730\u4ea7
p6413
aV\u623f\u5730\u4ea7
p6414
aV\u623f\u5730\u4ea7
p6415
aV\u623f\u5730\u4ea7
p6416
aV\u623f\u5730\u4ea7
p6417
aV\u623f\u5730\u4ea7
p6418
aV\u623f\u5730\u4ea7
p6419
aV\u623f\u5730\u4ea7
p6420
aV\u623f\u5730\u4ea7
p6421
aV\u623f\u5730\u4ea7
p6422
aV\u623f\u5730\u4ea7
p6423
aV\u623f\u5730\u4ea7
p6424
aV\u623f\u5730\u4ea7
p6425
aV\u623f\u5730\u4ea7
p6426
aV\u623f\u5730\u4ea7
p6427
aV\u623f\u5730\u4ea7
p6428
aV\u623f\u5730\u4ea7
p6429
aV\u623f\u5730\u4ea7
p6430
aV\u623f\u5730\u4ea7
p6431
aV\u623f\u5730\u4ea7
p6432
aV\u623f\u5730\u4ea7
p6433
aV\u623f\u5730\u4ea7
p6434
aV\u623f\u5730\u4ea7
p6435
aV\u623f\u5730\u4ea7
p6436
aV\u623f\u5730\u4ea7
p6437
aV\u623f\u5730\u4ea7
p6438
aV\u623f\u5730\u4ea7
p6439
aV\u623f\u5730\u4ea7
p6440
aV\u623f\u5730\u4ea7
p6441
aV\u623f\u5730\u4ea7
p6442
aV\u623f\u5730\u4ea7
p6443
aV\u623f\u5730\u4ea7
p6444
aV\u623f\u5730\u4ea7
p6445
aV\u623f\u5730\u4ea7
p6446
aV\u623f\u5730\u4ea7
p6447
aV\u623f\u5730\u4ea7
p6448
aV\u623f\u5730\u4ea7
p6449
aV\u623f\u5730\u4ea7
p6450
aV\u623f\u5730\u4ea7
p6451
aV\u623f\u5730\u4ea7
p6452
aV\u623f\u5730\u4ea7
p6453
aV\u623f\u5730\u4ea7
p6454
aV\u623f\u5730\u4ea7
p6455
aV\u623f\u5730\u4ea7
p6456
aV\u623f\u5730\u4ea7
p6457
aV\u623f\u5730\u4ea7
p6458
aV\u623f\u5730\u4ea7
p6459
aV\u623f\u5730\u4ea7
p6460
aV\u623f\u5730\u4ea7
p6461
aV\u623f\u5730\u4ea7
p6462
aV\u623f\u5730\u4ea7
p6463
aV\u623f\u5730\u4ea7
p6464
aV\u623f\u5730\u4ea7
p6465
aV\u91d1\u878d\u884c\u4e1a
p6466
aV\u91d1\u878d\u884c\u4e1a
p6467
aV\u91d1\u878d\u884c\u4e1a
p6468
aV\u91d1\u878d\u884c\u4e1a
p6469
aV\u91d1\u878d\u884c\u4e1a
p6470
aV\u91d1\u878d\u884c\u4e1a
p6471
aV\u91d1\u878d\u884c\u4e1a
p6472
aV\u91d1\u878d\u884c\u4e1a
p6473
aV\u91d1\u878d\u884c\u4e1a
p6474
aV\u91d1\u878d\u884c\u4e1a
p6475
aV\u91d1\u878d\u884c\u4e1a
p6476
aV\u91d1\u878d\u884c\u4e1a
p6477
aV\u91d1\u878d\u884c\u4e1a
p6478
aV\u91d1\u878d\u884c\u4e1a
p6479
aV\u91d1\u878d\u884c\u4e1a
p6480
aV\u91d1\u878d\u884c\u4e1a
p6481
aV\u91d1\u878d\u884c\u4e1a
p6482
aV\u91d1\u878d\u884c\u4e1a
p6483
aV\u91d1\u878d\u884c\u4e1a
p6484
aV\u91d1\u878d\u884c\u4e1a
p6485
aV\u91d1\u878d\u884c\u4e1a
p6486
aV\u91d1\u878d\u884c\u4e1a
p6487
aV\u91d1\u878d\u884c\u4e1a
p6488
aV\u91d1\u878d\u884c\u4e1a
p6489
aV\u91d1\u878d\u884c\u4e1a
p6490
aV\u91d1\u878d\u884c\u4e1a
p6491
aV\u91d1\u878d\u884c\u4e1a
p6492
aV\u91d1\u878d\u884c\u4e1a
p6493
aV\u91d1\u878d\u884c\u4e1a
p6494
aV\u91d1\u878d\u884c\u4e1a
p6495
aV\u91d1\u878d\u884c\u4e1a
p6496
aV\u91d1\u878d\u884c\u4e1a
p6497
aV\u91d1\u878d\u884c\u4e1a
p6498
aV\u91d1\u878d\u884c\u4e1a
p6499
aV\u91d1\u878d\u884c\u4e1a
p6500
aV\u91d1\u878d\u884c\u4e1a
p6501
aV\u91d1\u878d\u884c\u4e1a
p6502
aV\u91d1\u878d\u884c\u4e1a
p6503
aV\u91d1\u878d\u884c\u4e1a
p6504
aV\u91d1\u878d\u884c\u4e1a
p6505
aV\u91d1\u878d\u884c\u4e1a
p6506
aV\u91d1\u878d\u884c\u4e1a
p6507
aV\u91d1\u878d\u884c\u4e1a
p6508
aV\u91d1\u878d\u884c\u4e1a
p6509
aV\u91d1\u878d\u884c\u4e1a
p6510
aV\u91d1\u878d\u884c\u4e1a
p6511
aV\u91d1\u878d\u884c\u4e1a
p6512
aV\u91d1\u878d\u884c\u4e1a
p6513
aV\u91d1\u878d\u884c\u4e1a
p6514
aV\u91d1\u878d\u884c\u4e1a
p6515
aV\u91d1\u878d\u884c\u4e1a
p6516
aV\u5176\u5b83\u884c\u4e1a
p6517
aV\u5176\u5b83\u884c\u4e1a
p6518
aV\u5176\u5b83\u884c\u4e1a
p6519
aV\u5176\u5b83\u884c\u4e1a
p6520
aV\u5176\u5b83\u884c\u4e1a
p6521
aV\u5176\u5b83\u884c\u4e1a
p6522
aV\u5176\u5b83\u884c\u4e1a
p6523
aV\u5176\u5b83\u884c\u4e1a
p6524
aV\u5176\u5b83\u884c\u4e1a
p6525
aV\u5176\u5b83\u884c\u4e1a
p6526
aV\u5176\u5b83\u884c\u4e1a
p6527
aV\u5176\u5b83\u884c\u4e1a
p6528
aV\u5176\u5b83\u884c\u4e1a
p6529
aV\u5176\u5b83\u884c\u4e1a
p6530
aV\u5176\u5b83\u884c\u4e1a
p6531
aV\u5176\u5b83\u884c\u4e1a
p6532
aV\u5176\u5b83\u884c\u4e1a
p6533
aV\u5176\u5b83\u884c\u4e1a
p6534
aV\u5176\u5b83\u884c\u4e1a
p6535
aV\u5176\u5b83\u884c\u4e1a
p6536
aV\u5176\u5b83\u884c\u4e1a
p6537
aV\u5176\u5b83\u884c\u4e1a
p6538
aV\u5176\u5b83\u884c\u4e1a
p6539
aV\u5176\u5b83\u884c\u4e1a
p6540
aV\u5176\u5b83\u884c\u4e1a
p6541
aV\u5176\u5b83\u884c\u4e1a
p6542
aV\u5176\u5b83\u884c\u4e1a
p6543
aV\u5176\u5b83\u884c\u4e1a
p6544
aV\u5176\u5b83\u884c\u4e1a
p6545
aV\u5176\u5b83\u884c\u4e1a
p6546
aV\u5176\u5b83\u884c\u4e1a
p6547
aV\u5176\u5b83\u884c\u4e1a
p6548
aV\u5176\u5b83\u884c\u4e1a
p6549
aV\u5176\u5b83\u884c\u4e1a
p6550
aV\u5176\u5b83\u884c\u4e1a
p6551
aV\u5176\u5b83\u884c\u4e1a
p6552
aV\u5176\u5b83\u884c\u4e1a
p6553
aV\u5176\u5b83\u884c\u4e1a
p6554
aV\u5176\u5b83\u884c\u4e1a
p6555
aV\u5176\u5b83\u884c\u4e1a
p6556
aV\u5176\u5b83\u884c\u4e1a
p6557
aV\u5176\u5b83\u884c\u4e1a
p6558
aV\u5176\u5b83\u884c\u4e1a
p6559
aV\u5176\u5b83\u884c\u4e1a
p6560
aV\u5176\u5b83\u884c\u4e1a
p6561
aV\u5176\u5b83\u884c\u4e1a
p6562
aV\u5176\u5b83\u884c\u4e1a
p6563
aV\u5176\u5b83\u884c\u4e1a
p6564
aV\u5176\u5b83\u884c\u4e1a
p6565
aV\u5176\u5b83\u884c\u4e1a
p6566
aV\u5176\u5b83\u884c\u4e1a
p6567
aV\u5176\u5b83\u884c\u4e1a
p6568
aV\u5176\u5b83\u884c\u4e1a
p6569
aV\u5176\u5b83\u884c\u4e1a
p6570
aV\u5176\u5b83\u884c\u4e1a
p6571
aV\u5176\u5b83\u884c\u4e1a
p6572
aV\u5176\u5b83\u884c\u4e1a
p6573
aV\u5176\u5b83\u884c\u4e1a
p6574
aV\u5176\u5b83\u884c\u4e1a
p6575
aV\u5176\u5b83\u884c\u4e1a
p6576
aV\u5176\u5b83\u884c\u4e1a
p6577
aV\u5176\u5b83\u884c\u4e1a
p6578
aV\u5176\u5b83\u884c\u4e1a
p6579
aV\u5176\u5b83\u884c\u4e1a
p6580
aV\u5176\u5b83\u884c\u4e1a
p6581
aV\u5176\u5b83\u884c\u4e1a
p6582
aV\u5176\u5b83\u884c\u4e1a
p6583
aV\u5176\u5b83\u884c\u4e1a
p6584
aV\u5176\u5b83\u884c\u4e1a
p6585
aV\u5176\u5b83\u884c\u4e1a
p6586
aV\u5176\u5b83\u884c\u4e1a
p6587
aV\u5176\u5b83\u884c\u4e1a
p6588
aV\u5176\u5b83\u884c\u4e1a
p6589
aV\u5176\u5b83\u884c\u4e1a
p6590
aV\u5176\u5b83\u884c\u4e1a
p6591
aV\u5176\u5b83\u884c\u4e1a
p6592
aV\u5176\u5b83\u884c\u4e1a
p6593
aV\u5176\u5b83\u884c\u4e1a
p6594
aV\u5176\u5b83\u884c\u4e1a
p6595
aV\u5176\u5b83\u884c\u4e1a
p6596
aV\u5176\u5b83\u884c\u4e1a
p6597
aV\u5176\u5b83\u884c\u4e1a
p6598
aV\u5176\u5b83\u884c\u4e1a
p6599
aV\u5176\u5b83\u884c\u4e1a
p6600
aV\u5176\u5b83\u884c\u4e1a
p6601
aV\u5176\u5b83\u884c\u4e1a
p6602
aV\u5176\u5b83\u884c\u4e1a
p6603
aV\u5176\u5b83\u884c\u4e1a
p6604
aV\u5176\u5b83\u884c\u4e1a
p6605
aV\u5176\u5b83\u884c\u4e1a
p6606
aV\u5176\u5b83\u884c\u4e1a
p6607
aV\u5176\u5b83\u884c\u4e1a
p6608
aV\u5176\u5b83\u884c\u4e1a
p6609
aV\u5176\u5b83\u884c\u4e1a
p6610
aV\u5176\u5b83\u884c\u4e1a
p6611
aV\u5176\u5b83\u884c\u4e1a
p6612
aV\u5176\u5b83\u884c\u4e1a
p6613
aV\u5176\u5b83\u884c\u4e1a
p6614
aV\u5176\u5b83\u884c\u4e1a
p6615
aV\u5176\u5b83\u884c\u4e1a
p6616
aV\u5f00\u53d1\u533a
p6617
aV\u5f00\u53d1\u533a
p6618
aV\u5f00\u53d1\u533a
p6619
aV\u5f00\u53d1\u533a
p6620
aV\u5f00\u53d1\u533a
p6621
aV\u5f00\u53d1\u533a
p6622
aV\u5f00\u53d1\u533a
p6623
aV\u5f00\u53d1\u533a
p6624
aV\u5f00\u53d1\u533a
p6625
aV\u5f00\u53d1\u533a
p6626
aV\u7535\u5b50\u4fe1\u606f
p6627
aV\u7535\u5b50\u4fe1\u606f
p6628
aV\u7535\u5b50\u4fe1\u606f
p6629
aV\u7535\u5b50\u4fe1\u606f
p6630
aV\u7535\u5b50\u4fe1\u606f
p6631
aV\u7535\u5b50\u4fe1\u606f
p6632
aV\u7535\u5b50\u4fe1\u606f
p6633
aV\u7535\u5b50\u4fe1\u606f
p6634
aV\u7535\u5b50\u4fe1\u606f
p6635
aV\u7535\u5b50\u4fe1\u606f
p6636
aV\u7535\u5b50\u4fe1\u606f
p6637
aV\u7535\u5b50\u4fe1\u606f
p6638
aV\u7535\u5b50\u4fe1\u606f
p6639
aV\u7535\u5b50\u4fe1\u606f
p6640
aV\u7535\u5b50\u4fe1\u606f
p6641
aV\u7535\u5b50\u4fe1\u606f
p6642
aV\u7535\u5b50\u4fe1\u606f
p6643
aV\u7535\u5b50\u4fe1\u606f
p6644
aV\u7535\u5b50\u4fe1\u606f
p6645
aV\u7535\u5b50\u4fe1\u606f
p6646
aV\u7535\u5b50\u4fe1\u606f
p6647
aV\u7535\u5b50\u4fe1\u606f
p6648
aV\u7535\u5b50\u4fe1\u606f
p6649
aV\u7535\u5b50\u4fe1\u606f
p6650
aV\u7535\u5b50\u4fe1\u606f
p6651
aV\u7535\u5b50\u4fe1\u606f
p6652
aV\u7535\u5b50\u4fe1\u606f
p6653
aV\u7535\u5b50\u4fe1\u606f
p6654
aV\u7535\u5b50\u4fe1\u606f
p6655
aV\u7535\u5b50\u4fe1\u606f
p6656
aV\u7535\u5b50\u4fe1\u606f
p6657
aV\u7535\u5b50\u4fe1\u606f
p6658
aV\u7535\u5b50\u4fe1\u606f
p6659
aV\u7535\u5b50\u4fe1\u606f
p6660
aV\u7535\u5b50\u4fe1\u606f
p6661
aV\u7535\u5b50\u4fe1\u606f
p6662
aV\u7535\u5b50\u4fe1\u606f
p6663
aV\u7535\u5b50\u4fe1\u606f
p6664
aV\u7535\u5b50\u4fe1\u606f
p6665
aV\u7535\u5b50\u4fe1\u606f
p6666
aV\u7535\u5b50\u4fe1\u606f
p6667
aV\u7535\u5b50\u4fe1\u606f
p6668
aV\u7535\u5b50\u4fe1\u606f
p6669
aV\u7535\u5b50\u4fe1\u606f
p6670
aV\u7535\u5b50\u4fe1\u606f
p6671
aV\u7535\u5b50\u4fe1\u606f
p6672
aV\u7535\u5b50\u4fe1\u606f
p6673
aV\u7535\u5b50\u4fe1\u606f
p6674
aV\u7535\u5b50\u4fe1\u606f
p6675
aV\u7535\u5b50\u4fe1\u606f
p6676
aV\u7535\u5b50\u4fe1\u606f
p6677
aV\u7535\u5b50\u4fe1\u606f
p6678
aV\u7535\u5b50\u4fe1\u606f
p6679
aV\u7535\u5b50\u4fe1\u606f
p6680
aV\u7535\u5b50\u4fe1\u606f
p6681
aV\u7535\u5b50\u4fe1\u606f
p6682
aV\u7535\u5b50\u4fe1\u606f
p6683
aV\u7535\u5b50\u4fe1\u606f
p6684
aV\u7535\u5b50\u4fe1\u606f
p6685
aV\u7535\u5b50\u4fe1\u606f
p6686
aV\u7535\u5b50\u4fe1\u606f
p6687
aV\u7535\u5b50\u4fe1\u606f
p6688
aV\u7535\u5b50\u4fe1\u606f
p6689
aV\u7535\u5b50\u4fe1\u606f
p6690
aV\u7535\u5b50\u4fe1\u606f
p6691
aV\u7535\u5b50\u4fe1\u606f
p6692
aV\u7535\u5b50\u4fe1\u606f
p6693
aV\u7535\u5b50\u4fe1\u606f
p6694
aV\u7535\u5b50\u4fe1\u606f
p6695
aV\u7535\u5b50\u4fe1\u606f
p6696
aV\u7535\u5b50\u4fe1\u606f
p6697
aV\u7535\u5b50\u4fe1\u606f
p6698
aV\u7535\u5b50\u4fe1\u606f
p6699
aV\u7535\u5b50\u4fe1\u606f
p6700
aV\u7535\u5b50\u4fe1\u606f
p6701
aV\u7535\u5b50\u4fe1\u606f
p6702
aV\u7535\u5b50\u4fe1\u606f
p6703
aV\u7535\u5b50\u4fe1\u606f
p6704
aV\u7535\u5b50\u4fe1\u606f
p6705
aV\u7535\u5b50\u4fe1\u606f
p6706
aV\u7535\u5b50\u4fe1\u606f
p6707
aV\u7535\u5b50\u4fe1\u606f
p6708
aV\u7535\u5b50\u4fe1\u606f
p6709
aV\u7535\u5b50\u4fe1\u606f
p6710
aV\u7535\u5b50\u4fe1\u606f
p6711
aV\u7535\u5b50\u4fe1\u606f
p6712
aV\u7535\u5b50\u4fe1\u606f
p6713
aV\u7535\u5b50\u4fe1\u606f
p6714
aV\u7535\u5b50\u4fe1\u606f
p6715
aV\u7535\u5b50\u4fe1\u606f
p6716
aV\u7535\u5b50\u4fe1\u606f
p6717
aV\u7535\u5b50\u4fe1\u606f
p6718
aV\u7535\u5b50\u4fe1\u606f
p6719
aV\u7535\u5b50\u4fe1\u606f
p6720
aV\u7535\u5b50\u4fe1\u606f
p6721
aV\u7535\u5b50\u4fe1\u606f
p6722
aV\u7535\u5b50\u4fe1\u606f
p6723
aV\u7535\u5b50\u4fe1\u606f
p6724
aV\u7535\u5b50\u4fe1\u606f
p6725
aV\u7535\u5b50\u4fe1\u606f
p6726
aV\u670d\u88c5\u978b\u7c7b
p6727
aV\u670d\u88c5\u978b\u7c7b
p6728
aV\u670d\u88c5\u978b\u7c7b
p6729
aV\u670d\u88c5\u978b\u7c7b
p6730
aV\u670d\u88c5\u978b\u7c7b
p6731
aV\u670d\u88c5\u978b\u7c7b
p6732
aV\u670d\u88c5\u978b\u7c7b
p6733
aV\u670d\u88c5\u978b\u7c7b
p6734
aV\u670d\u88c5\u978b\u7c7b
p6735
aV\u670d\u88c5\u978b\u7c7b
p6736
aV\u670d\u88c5\u978b\u7c7b
p6737
aV\u670d\u88c5\u978b\u7c7b
p6738
aV\u670d\u88c5\u978b\u7c7b
p6739
aV\u670d\u88c5\u978b\u7c7b
p6740
aV\u670d\u88c5\u978b\u7c7b
p6741
aV\u670d\u88c5\u978b\u7c7b
p6742
aV\u670d\u88c5\u978b\u7c7b
p6743
aV\u670d\u88c5\u978b\u7c7b
p6744
aV\u670d\u88c5\u978b\u7c7b
p6745
aV\u670d\u88c5\u978b\u7c7b
p6746
aV\u670d\u88c5\u978b\u7c7b
p6747
aV\u670d\u88c5\u978b\u7c7b
p6748
aV\u670d\u88c5\u978b\u7c7b
p6749
aV\u670d\u88c5\u978b\u7c7b
p6750
aV\u670d\u88c5\u978b\u7c7b
p6751
aV\u670d\u88c5\u978b\u7c7b
p6752
aV\u670d\u88c5\u978b\u7c7b
p6753
aV\u670d\u88c5\u978b\u7c7b
p6754
aV\u670d\u88c5\u978b\u7c7b
p6755
aV\u670d\u88c5\u978b\u7c7b
p6756
aV\u670d\u88c5\u978b\u7c7b
p6757
aV\u670d\u88c5\u978b\u7c7b
p6758
aV\u670d\u88c5\u978b\u7c7b
p6759
aV\u670d\u88c5\u978b\u7c7b
p6760
aV\u670d\u88c5\u978b\u7c7b
p6761
aV\u670d\u88c5\u978b\u7c7b
p6762
aV\u670d\u88c5\u978b\u7c7b
p6763
aV\u670d\u88c5\u978b\u7c7b
p6764
aV\u670d\u88c5\u978b\u7c7b
p6765
aV\u670d\u88c5\u978b\u7c7b
p6766
aV\u670d\u88c5\u978b\u7c7b
p6767
aV\u670d\u88c5\u978b\u7c7b
p6768
aV\u670d\u88c5\u978b\u7c7b
p6769
aV\u670d\u88c5\u978b\u7c7b
p6770
aV\u670d\u88c5\u978b\u7c7b
p6771
aV\u670d\u88c5\u978b\u7c7b
p6772
aV\u670d\u88c5\u978b\u7c7b
p6773
aV\u670d\u88c5\u978b\u7c7b
p6774
aV\u670d\u88c5\u978b\u7c7b
p6775
aV\u7535\u5b50\u5668\u4ef6
p6776
aV\u7535\u5b50\u5668\u4ef6
p6777
aV\u7535\u5b50\u5668\u4ef6
p6778
aV\u7535\u5b50\u5668\u4ef6
p6779
aV\u7535\u5b50\u5668\u4ef6
p6780
aV\u7535\u5b50\u5668\u4ef6
p6781
aV\u7535\u5b50\u5668\u4ef6
p6782
aV\u7535\u5b50\u5668\u4ef6
p6783
aV\u7535\u5b50\u5668\u4ef6
p6784
aV\u7535\u5b50\u5668\u4ef6
p6785
aV\u7535\u5b50\u5668\u4ef6
p6786
aV\u7535\u5b50\u5668\u4ef6
p6787
aV\u7535\u5b50\u5668\u4ef6
p6788
aV\u7535\u5b50\u5668\u4ef6
p6789
aV\u7535\u5b50\u5668\u4ef6
p6790
aV\u7535\u5b50\u5668\u4ef6
p6791
aV\u7535\u5b50\u5668\u4ef6
p6792
aV\u7535\u5b50\u5668\u4ef6
p6793
aV\u7535\u5b50\u5668\u4ef6
p6794
aV\u7535\u5b50\u5668\u4ef6
p6795
aV\u7535\u5b50\u5668\u4ef6
p6796
aV\u7535\u5b50\u5668\u4ef6
p6797
aV\u7535\u5b50\u5668\u4ef6
p6798
aV\u7535\u5b50\u5668\u4ef6
p6799
aV\u7535\u5b50\u5668\u4ef6
p6800
aV\u7535\u5b50\u5668\u4ef6
p6801
aV\u7535\u5b50\u5668\u4ef6
p6802
aV\u7535\u5b50\u5668\u4ef6
p6803
aV\u7535\u5b50\u5668\u4ef6
p6804
aV\u7535\u5b50\u5668\u4ef6
p6805
aV\u7535\u5b50\u5668\u4ef6
p6806
aV\u7535\u5b50\u5668\u4ef6
p6807
aV\u7535\u5b50\u5668\u4ef6
p6808
aV\u7535\u5b50\u5668\u4ef6
p6809
aV\u7535\u5b50\u5668\u4ef6
p6810
aV\u7535\u5b50\u5668\u4ef6
p6811
aV\u7535\u5b50\u5668\u4ef6
p6812
aV\u7535\u5b50\u5668\u4ef6
p6813
aV\u7535\u5b50\u5668\u4ef6
p6814
aV\u7535\u5b50\u5668\u4ef6
p6815
aV\u7535\u5b50\u5668\u4ef6
p6816
aV\u7535\u5b50\u5668\u4ef6
p6817
aV\u7535\u5b50\u5668\u4ef6
p6818
aV\u7535\u5b50\u5668\u4ef6
p6819
aV\u7535\u5b50\u5668\u4ef6
p6820
aV\u7535\u5b50\u5668\u4ef6
p6821
aV\u7535\u5b50\u5668\u4ef6
p6822
aV\u7535\u5b50\u5668\u4ef6
p6823
aV\u7535\u5b50\u5668\u4ef6
p6824
aV\u7535\u5b50\u5668\u4ef6
p6825
aV\u7535\u5b50\u5668\u4ef6
p6826
aV\u7535\u5b50\u5668\u4ef6
p6827
aV\u7535\u5b50\u5668\u4ef6
p6828
aV\u7535\u5b50\u5668\u4ef6
p6829
aV\u7535\u5b50\u5668\u4ef6
p6830
aV\u7535\u5b50\u5668\u4ef6
p6831
aV\u7535\u5b50\u5668\u4ef6
p6832
aV\u7535\u5b50\u5668\u4ef6
p6833
aV\u7535\u5b50\u5668\u4ef6
p6834
aV\u7535\u5b50\u5668\u4ef6
p6835
aV\u7535\u5b50\u5668\u4ef6
p6836
aV\u7535\u5b50\u5668\u4ef6
p6837
aV\u7535\u5b50\u5668\u4ef6
p6838
aV\u7535\u5b50\u5668\u4ef6
p6839
aV\u7535\u5b50\u5668\u4ef6
p6840
aV\u7535\u5b50\u5668\u4ef6
p6841
aV\u7535\u5b50\u5668\u4ef6
p6842
aV\u7535\u5b50\u5668\u4ef6
p6843
aV\u7535\u5b50\u5668\u4ef6
p6844
aV\u7535\u5b50\u5668\u4ef6
p6845
aV\u7535\u5b50\u5668\u4ef6
p6846
aV\u7535\u5b50\u5668\u4ef6
p6847
aV\u7535\u5b50\u5668\u4ef6
p6848
aV\u7535\u5b50\u5668\u4ef6
p6849
aV\u7535\u5b50\u5668\u4ef6
p6850
aV\u7535\u5b50\u5668\u4ef6
p6851
aV\u7535\u5b50\u5668\u4ef6
p6852
aV\u7535\u5b50\u5668\u4ef6
p6853
aV\u7535\u5b50\u5668\u4ef6
p6854
aV\u7535\u5b50\u5668\u4ef6
p6855
aV\u7535\u5b50\u5668\u4ef6
p6856
aV\u7535\u5b50\u5668\u4ef6
p6857
aV\u7535\u5b50\u5668\u4ef6
p6858
aV\u7535\u5b50\u5668\u4ef6
p6859
aV\u7535\u5b50\u5668\u4ef6
p6860
aV\u7535\u5b50\u5668\u4ef6
p6861
aV\u7535\u5b50\u5668\u4ef6
p6862
aV\u7535\u5b50\u5668\u4ef6
p6863
aV\u7535\u5b50\u5668\u4ef6
p6864
aV\u7535\u5b50\u5668\u4ef6
p6865
aV\u7535\u5b50\u5668\u4ef6
p6866
aV\u7535\u5b50\u5668\u4ef6
p6867
aV\u7535\u5b50\u5668\u4ef6
p6868
aV\u7535\u5b50\u5668\u4ef6
p6869
aV\u7535\u5b50\u5668\u4ef6
p6870
aV\u7535\u5b50\u5668\u4ef6
p6871
aV\u7535\u5b50\u5668\u4ef6
p6872
aV\u7535\u5b50\u5668\u4ef6
p6873
aV\u7535\u5b50\u5668\u4ef6
p6874
aV\u7535\u5b50\u5668\u4ef6
p6875
aV\u7535\u529b\u884c\u4e1a
p6876
aV\u7535\u529b\u884c\u4e1a
p6877
aV\u7535\u529b\u884c\u4e1a
p6878
aV\u7535\u529b\u884c\u4e1a
p6879
aV\u7535\u529b\u884c\u4e1a
p6880
aV\u7535\u529b\u884c\u4e1a
p6881
aV\u7535\u529b\u884c\u4e1a
p6882
aV\u7535\u529b\u884c\u4e1a
p6883
aV\u7535\u529b\u884c\u4e1a
p6884
aV\u7535\u529b\u884c\u4e1a
p6885
aV\u7535\u529b\u884c\u4e1a
p6886
aV\u7535\u529b\u884c\u4e1a
p6887
aV\u7535\u529b\u884c\u4e1a
p6888
aV\u7535\u529b\u884c\u4e1a
p6889
aV\u7535\u529b\u884c\u4e1a
p6890
aV\u7535\u529b\u884c\u4e1a
p6891
aV\u7535\u529b\u884c\u4e1a
p6892
aV\u7535\u529b\u884c\u4e1a
p6893
aV\u7535\u529b\u884c\u4e1a
p6894
aV\u7535\u529b\u884c\u4e1a
p6895
aV\u7535\u529b\u884c\u4e1a
p6896
aV\u7535\u529b\u884c\u4e1a
p6897
aV\u7535\u529b\u884c\u4e1a
p6898
aV\u7535\u529b\u884c\u4e1a
p6899
aV\u7535\u529b\u884c\u4e1a
p6900
aV\u7535\u529b\u884c\u4e1a
p6901
aV\u7535\u529b\u884c\u4e1a
p6902
aV\u7535\u529b\u884c\u4e1a
p6903
aV\u7535\u529b\u884c\u4e1a
p6904
aV\u7535\u529b\u884c\u4e1a
p6905
aV\u7535\u529b\u884c\u4e1a
p6906
aV\u7535\u529b\u884c\u4e1a
p6907
aV\u7535\u529b\u884c\u4e1a
p6908
aV\u7535\u529b\u884c\u4e1a
p6909
aV\u7535\u529b\u884c\u4e1a
p6910
aV\u7535\u529b\u884c\u4e1a
p6911
aV\u7535\u529b\u884c\u4e1a
p6912
aV\u7535\u529b\u884c\u4e1a
p6913
aV\u7535\u529b\u884c\u4e1a
p6914
aV\u7535\u529b\u884c\u4e1a
p6915
aV\u7535\u529b\u884c\u4e1a
p6916
aV\u7535\u529b\u884c\u4e1a
p6917
aV\u7535\u529b\u884c\u4e1a
p6918
aV\u7535\u529b\u884c\u4e1a
p6919
aV\u7535\u529b\u884c\u4e1a
p6920
aV\u7535\u529b\u884c\u4e1a
p6921
aV\u7535\u529b\u884c\u4e1a
p6922
aV\u7535\u529b\u884c\u4e1a
p6923
aV\u7535\u529b\u884c\u4e1a
p6924
aV\u7535\u529b\u884c\u4e1a
p6925
aV\u7535\u529b\u884c\u4e1a
p6926
aV\u7535\u529b\u884c\u4e1a
p6927
aV\u7535\u529b\u884c\u4e1a
p6928
aV\u7535\u529b\u884c\u4e1a
p6929
aV\u7535\u529b\u884c\u4e1a
p6930
aV\u7535\u529b\u884c\u4e1a
p6931
aV\u7535\u529b\u884c\u4e1a
p6932
aV\u7535\u529b\u884c\u4e1a
p6933
aV\u7535\u529b\u884c\u4e1a
p6934
aV\u7535\u529b\u884c\u4e1a
p6935
aV\u7535\u529b\u884c\u4e1a
p6936
aV\u7535\u529b\u884c\u4e1a
p6937
aV\u6c7d\u8f66\u5236\u9020
p6938
aV\u6c7d\u8f66\u5236\u9020
p6939
aV\u6c7d\u8f66\u5236\u9020
p6940
aV\u6c7d\u8f66\u5236\u9020
p6941
aV\u6c7d\u8f66\u5236\u9020
p6942
aV\u6c7d\u8f66\u5236\u9020
p6943
aV\u6c7d\u8f66\u5236\u9020
p6944
aV\u6c7d\u8f66\u5236\u9020
p6945
aV\u6c7d\u8f66\u5236\u9020
p6946
aV\u6c7d\u8f66\u5236\u9020
p6947
aV\u6c7d\u8f66\u5236\u9020
p6948
aV\u6c7d\u8f66\u5236\u9020
p6949
aV\u6c7d\u8f66\u5236\u9020
p6950
aV\u6c7d\u8f66\u5236\u9020
p6951
aV\u6c7d\u8f66\u5236\u9020
p6952
aV\u6c7d\u8f66\u5236\u9020
p6953
aV\u6c7d\u8f66\u5236\u9020
p6954
aV\u6c7d\u8f66\u5236\u9020
p6955
aV\u6c7d\u8f66\u5236\u9020
p6956
aV\u6c7d\u8f66\u5236\u9020
p6957
aV\u6c7d\u8f66\u5236\u9020
p6958
aV\u6c7d\u8f66\u5236\u9020
p6959
aV\u6c7d\u8f66\u5236\u9020
p6960
aV\u6c7d\u8f66\u5236\u9020
p6961
aV\u6c7d\u8f66\u5236\u9020
p6962
aV\u6c7d\u8f66\u5236\u9020
p6963
aV\u6c7d\u8f66\u5236\u9020
p6964
aV\u6c7d\u8f66\u5236\u9020
p6965
aV\u6c7d\u8f66\u5236\u9020
p6966
aV\u6c7d\u8f66\u5236\u9020
p6967
aV\u6c7d\u8f66\u5236\u9020
p6968
aV\u6c7d\u8f66\u5236\u9020
p6969
aV\u6c7d\u8f66\u5236\u9020
p6970
aV\u6c7d\u8f66\u5236\u9020
p6971
aV\u6c7d\u8f66\u5236\u9020
p6972
aV\u6c7d\u8f66\u5236\u9020
p6973
aV\u6c7d\u8f66\u5236\u9020
p6974
aV\u6c7d\u8f66\u5236\u9020
p6975
aV\u6c7d\u8f66\u5236\u9020
p6976
aV\u6c7d\u8f66\u5236\u9020
p6977
aV\u6c7d\u8f66\u5236\u9020
p6978
aV\u6c7d\u8f66\u5236\u9020
p6979
aV\u6c7d\u8f66\u5236\u9020
p6980
aV\u6c7d\u8f66\u5236\u9020
p6981
aV\u6c7d\u8f66\u5236\u9020
p6982
aV\u6c7d\u8f66\u5236\u9020
p6983
aV\u6c7d\u8f66\u5236\u9020
p6984
aV\u6c7d\u8f66\u5236\u9020
p6985
aV\u6c7d\u8f66\u5236\u9020
p6986
aV\u6c7d\u8f66\u5236\u9020
p6987
aV\u6c7d\u8f66\u5236\u9020
p6988
aV\u6c7d\u8f66\u5236\u9020
p6989
aV\u6c7d\u8f66\u5236\u9020
p6990
aV\u6c7d\u8f66\u5236\u9020
p6991
aV\u6c7d\u8f66\u5236\u9020
p6992
aV\u6c7d\u8f66\u5236\u9020
p6993
aV\u6c7d\u8f66\u5236\u9020
p6994
aV\u6c7d\u8f66\u5236\u9020
p6995
aV\u6c7d\u8f66\u5236\u9020
p6996
aV\u6c7d\u8f66\u5236\u9020
p6997
aV\u6c7d\u8f66\u5236\u9020
p6998
aV\u6c7d\u8f66\u5236\u9020
p6999
aV\u6c7d\u8f66\u5236\u9020
p7000
aV\u6c7d\u8f66\u5236\u9020
p7001
aV\u6c7d\u8f66\u5236\u9020
p7002
aV\u6c7d\u8f66\u5236\u9020
p7003
aV\u6c7d\u8f66\u5236\u9020
p7004
aV\u6c7d\u8f66\u5236\u9020
p7005
aV\u6c7d\u8f66\u5236\u9020
p7006
aV\u6c7d\u8f66\u5236\u9020
p7007
aV\u6c7d\u8f66\u5236\u9020
p7008
aV\u6c7d\u8f66\u5236\u9020
p7009
aV\u6c7d\u8f66\u5236\u9020
p7010
aV\u6c7d\u8f66\u5236\u9020
p7011
aV\u6c7d\u8f66\u5236\u9020
p7012
aV\u6c7d\u8f66\u5236\u9020
p7013
aV\u6c7d\u8f66\u5236\u9020
p7014
aV\u6c7d\u8f66\u5236\u9020
p7015
aV\u6c7d\u8f66\u5236\u9020
p7016
aV\u6c7d\u8f66\u5236\u9020
p7017
aV\u6c7d\u8f66\u5236\u9020
p7018
aV\u6c7d\u8f66\u5236\u9020
p7019
aV\u6c7d\u8f66\u5236\u9020
p7020
aV\u6c7d\u8f66\u5236\u9020
p7021
aV\u6c7d\u8f66\u5236\u9020
p7022
aV\u6c7d\u8f66\u5236\u9020
p7023
aV\u6c7d\u8f66\u5236\u9020
p7024
aV\u6c7d\u8f66\u5236\u9020
p7025
aV\u6c7d\u8f66\u5236\u9020
p7026
aV\u6c7d\u8f66\u5236\u9020
p7027
aV\u6c7d\u8f66\u5236\u9020
p7028
aV\u6c7d\u8f66\u5236\u9020
p7029
aV\u6c7d\u8f66\u5236\u9020
p7030
aV\u6c7d\u8f66\u5236\u9020
p7031
aV\u6c7d\u8f66\u5236\u9020
p7032
aV\u6c7d\u8f66\u5236\u9020
p7033
aV\u6c7d\u8f66\u5236\u9020
p7034
aV\u6c7d\u8f66\u5236\u9020
p7035
aV\u6c7d\u8f66\u5236\u9020
p7036
aV\u6c7d\u8f66\u5236\u9020
p7037
aV\u5bb6\u5177\u884c\u4e1a
p7038
aV\u5bb6\u5177\u884c\u4e1a
p7039
aV\u5bb6\u5177\u884c\u4e1a
p7040
aV\u5bb6\u5177\u884c\u4e1a
p7041
aV\u5bb6\u5177\u884c\u4e1a
p7042
aV\u5bb6\u5177\u884c\u4e1a
p7043
aV\u5bb6\u5177\u884c\u4e1a
p7044
aV\u5bb6\u5177\u884c\u4e1a
p7045
aV\u5bb6\u5177\u884c\u4e1a
p7046
aV\u5bb6\u5177\u884c\u4e1a
p7047
aV\u5bb6\u5177\u884c\u4e1a
p7048
aV\u5bb6\u5177\u884c\u4e1a
p7049
aV\u5bb6\u5177\u884c\u4e1a
p7050
aV\u5bb6\u5177\u884c\u4e1a
p7051
aV\u5bb6\u5177\u884c\u4e1a
p7052
aV\u5bb6\u5177\u884c\u4e1a
p7053
aV\u519c\u836f\u5316\u80a5
p7054
aV\u519c\u836f\u5316\u80a5
p7055
aV\u519c\u836f\u5316\u80a5
p7056
aV\u519c\u836f\u5316\u80a5
p7057
aV\u519c\u836f\u5316\u80a5
p7058
aV\u519c\u836f\u5316\u80a5
p7059
aV\u519c\u836f\u5316\u80a5
p7060
aV\u519c\u836f\u5316\u80a5
p7061
aV\u519c\u836f\u5316\u80a5
p7062
aV\u519c\u836f\u5316\u80a5
p7063
aV\u519c\u836f\u5316\u80a5
p7064
aV\u519c\u836f\u5316\u80a5
p7065
aV\u519c\u836f\u5316\u80a5
p7066
aV\u519c\u836f\u5316\u80a5
p7067
aV\u519c\u836f\u5316\u80a5
p7068
aV\u519c\u836f\u5316\u80a5
p7069
aV\u519c\u836f\u5316\u80a5
p7070
aV\u519c\u836f\u5316\u80a5
p7071
aV\u519c\u836f\u5316\u80a5
p7072
aV\u519c\u836f\u5316\u80a5
p7073
aV\u519c\u836f\u5316\u80a5
p7074
aV\u519c\u836f\u5316\u80a5
p7075
aV\u519c\u836f\u5316\u80a5
p7076
aV\u519c\u836f\u5316\u80a5
p7077
aV\u519c\u836f\u5316\u80a5
p7078
aV\u519c\u836f\u5316\u80a5
p7079
aV\u519c\u836f\u5316\u80a5
p7080
aV\u519c\u836f\u5316\u80a5
p7081
aV\u519c\u836f\u5316\u80a5
p7082
aV\u519c\u836f\u5316\u80a5
p7083
aV\u519c\u836f\u5316\u80a5
p7084
aV\u519c\u836f\u5316\u80a5
p7085
aV\u519c\u836f\u5316\u80a5
p7086
aV\u519c\u836f\u5316\u80a5
p7087
aV\u519c\u836f\u5316\u80a5
p7088
aV\u519c\u836f\u5316\u80a5
p7089
aV\u519c\u836f\u5316\u80a5
p7090
aV\u519c\u836f\u5316\u80a5
p7091
aV\u519c\u836f\u5316\u80a5
p7092
aV\u519c\u836f\u5316\u80a5
p7093
aV\u519c\u836f\u5316\u80a5
p7094
aV\u519c\u836f\u5316\u80a5
p7095
aV\u519c\u836f\u5316\u80a5
p7096
aV\u519c\u836f\u5316\u80a5
p7097
aV\u519c\u836f\u5316\u80a5
p7098
aV\u519c\u836f\u5316\u80a5
p7099
aV\u9152\u5e97\u65c5\u6e38
p7100
aV\u9152\u5e97\u65c5\u6e38
p7101
aV\u9152\u5e97\u65c5\u6e38
p7102
aV\u9152\u5e97\u65c5\u6e38
p7103
aV\u9152\u5e97\u65c5\u6e38
p7104
aV\u9152\u5e97\u65c5\u6e38
p7105
aV\u9152\u5e97\u65c5\u6e38
p7106
aV\u9152\u5e97\u65c5\u6e38
p7107
aV\u9152\u5e97\u65c5\u6e38
p7108
aV\u9152\u5e97\u65c5\u6e38
p7109
aV\u9152\u5e97\u65c5\u6e38
p7110
aV\u9152\u5e97\u65c5\u6e38
p7111
aV\u9152\u5e97\u65c5\u6e38
p7112
aV\u9152\u5e97\u65c5\u6e38
p7113
aV\u9152\u5e97\u65c5\u6e38
p7114
aV\u9152\u5e97\u65c5\u6e38
p7115
aV\u9152\u5e97\u65c5\u6e38
p7116
aV\u9152\u5e97\u65c5\u6e38
p7117
aV\u9152\u5e97\u65c5\u6e38
p7118
aV\u9152\u5e97\u65c5\u6e38
p7119
aV\u9152\u5e97\u65c5\u6e38
p7120
aV\u9152\u5e97\u65c5\u6e38
p7121
aV\u9152\u5e97\u65c5\u6e38
p7122
aV\u9152\u5e97\u65c5\u6e38
p7123
aV\u9152\u5e97\u65c5\u6e38
p7124
aV\u9152\u5e97\u65c5\u6e38
p7125
aV\u9152\u5e97\u65c5\u6e38
p7126
aV\u9152\u5e97\u65c5\u6e38
p7127
aV\u9152\u5e97\u65c5\u6e38
p7128
aV\u9152\u5e97\u65c5\u6e38
p7129
aV\u9152\u5e97\u65c5\u6e38
p7130
aV\u9152\u5e97\u65c5\u6e38
p7131
aV\u9152\u5e97\u65c5\u6e38
p7132
aV\u9152\u5e97\u65c5\u6e38
p7133
aV\u9152\u5e97\u65c5\u6e38
p7134
aV\u9152\u5e97\u65c5\u6e38
p7135
aV\u6c34\u6ce5\u884c\u4e1a
p7136
aV\u6c34\u6ce5\u884c\u4e1a
p7137
aV\u6c34\u6ce5\u884c\u4e1a
p7138
aV\u6c34\u6ce5\u884c\u4e1a
p7139
aV\u6c34\u6ce5\u884c\u4e1a
p7140
aV\u6c34\u6ce5\u884c\u4e1a
p7141
aV\u6c34\u6ce5\u884c\u4e1a
p7142
aV\u6c34\u6ce5\u884c\u4e1a
p7143
aV\u6c34\u6ce5\u884c\u4e1a
p7144
aV\u6c34\u6ce5\u884c\u4e1a
p7145
aV\u6c34\u6ce5\u884c\u4e1a
p7146
aV\u6c34\u6ce5\u884c\u4e1a
p7147
aV\u6c34\u6ce5\u884c\u4e1a
p7148
aV\u6c34\u6ce5\u884c\u4e1a
p7149
aV\u6c34\u6ce5\u884c\u4e1a
p7150
aV\u6c34\u6ce5\u884c\u4e1a
p7151
aV\u6c34\u6ce5\u884c\u4e1a
p7152
aV\u6c34\u6ce5\u884c\u4e1a
p7153
aV\u6c34\u6ce5\u884c\u4e1a
p7154
aV\u6c34\u6ce5\u884c\u4e1a
p7155
aV\u6c34\u6ce5\u884c\u4e1a
p7156
aV\u6c34\u6ce5\u884c\u4e1a
p7157
aV\u6c34\u6ce5\u884c\u4e1a
p7158
aV\u6c34\u6ce5\u884c\u4e1a
p7159
aV\u6c34\u6ce5\u884c\u4e1a
p7160
aV\u6c34\u6ce5\u884c\u4e1a
p7161
aV\u7269\u8d44\u5916\u8d38
p7162
aV\u7269\u8d44\u5916\u8d38
p7163
aV\u7269\u8d44\u5916\u8d38
p7164
aV\u7269\u8d44\u5916\u8d38
p7165
aV\u7269\u8d44\u5916\u8d38
p7166
aV\u7269\u8d44\u5916\u8d38
p7167
aV\u7269\u8d44\u5916\u8d38
p7168
aV\u7269\u8d44\u5916\u8d38
p7169
aV\u7269\u8d44\u5916\u8d38
p7170
aV\u7269\u8d44\u5916\u8d38
p7171
aV\u7269\u8d44\u5916\u8d38
p7172
aV\u7269\u8d44\u5916\u8d38
p7173
aV\u7269\u8d44\u5916\u8d38
p7174
aV\u7269\u8d44\u5916\u8d38
p7175
aV\u7269\u8d44\u5916\u8d38
p7176
aV\u7269\u8d44\u5916\u8d38
p7177
aV\u7269\u8d44\u5916\u8d38
p7178
aV\u7269\u8d44\u5916\u8d38
p7179
aV\u7269\u8d44\u5916\u8d38
p7180
aV\u7269\u8d44\u5916\u8d38
p7181
aV\u7269\u8d44\u5916\u8d38
p7182
aV\u6469\u6258\u8f66
p7183
aV\u6469\u6258\u8f66
p7184
aV\u6469\u6258\u8f66
p7185
aV\u6469\u6258\u8f66
p7186
aV\u6469\u6258\u8f66
p7187
aV\u6469\u6258\u8f66
p7188
aV\u5370\u5237\u5305\u88c5
p7189
aV\u5370\u5237\u5305\u88c5
p7190
aV\u5370\u5237\u5305\u88c5
p7191
aV\u5370\u5237\u5305\u88c5
p7192
aV\u5370\u5237\u5305\u88c5
p7193
aV\u5370\u5237\u5305\u88c5
p7194
aV\u5370\u5237\u5305\u88c5
p7195
aV\u5370\u5237\u5305\u88c5
p7196
aV\u5370\u5237\u5305\u88c5
p7197
aV\u5370\u5237\u5305\u88c5
p7198
aV\u5370\u5237\u5305\u88c5
p7199
aV\u5370\u5237\u5305\u88c5
p7200
aV\u5370\u5237\u5305\u88c5
p7201
aV\u5370\u5237\u5305\u88c5
p7202
aV\u5370\u5237\u5305\u88c5
p7203
aV\u5370\u5237\u5305\u88c5
p7204
aV\u5370\u5237\u5305\u88c5
p7205
aV\u5370\u5237\u5305\u88c5
p7206
aV\u5370\u5237\u5305\u88c5
p7207
aV\u5370\u5237\u5305\u88c5
p7208
aV\u5bb6\u7535\u884c\u4e1a
p7209
aV\u5bb6\u7535\u884c\u4e1a
p7210
aV\u5bb6\u7535\u884c\u4e1a
p7211
aV\u5bb6\u7535\u884c\u4e1a
p7212
aV\u5bb6\u7535\u884c\u4e1a
p7213
aV\u5bb6\u7535\u884c\u4e1a
p7214
aV\u5bb6\u7535\u884c\u4e1a
p7215
aV\u5bb6\u7535\u884c\u4e1a
p7216
aV\u5bb6\u7535\u884c\u4e1a
p7217
aV\u5bb6\u7535\u884c\u4e1a
p7218
aV\u5bb6\u7535\u884c\u4e1a
p7219
aV\u5bb6\u7535\u884c\u4e1a
p7220
aV\u5bb6\u7535\u884c\u4e1a
p7221
aV\u5bb6\u7535\u884c\u4e1a
p7222
aV\u5bb6\u7535\u884c\u4e1a
p7223
aV\u5bb6\u7535\u884c\u4e1a
p7224
aV\u5bb6\u7535\u884c\u4e1a
p7225
aV\u5bb6\u7535\u884c\u4e1a
p7226
aV\u5bb6\u7535\u884c\u4e1a
p7227
aV\u5bb6\u7535\u884c\u4e1a
p7228
aV\u5bb6\u7535\u884c\u4e1a
p7229
aV\u5bb6\u7535\u884c\u4e1a
p7230
aV\u5bb6\u7535\u884c\u4e1a
p7231
aV\u5bb6\u7535\u884c\u4e1a
p7232
aV\u5bb6\u7535\u884c\u4e1a
p7233
aV\u5bb6\u7535\u884c\u4e1a
p7234
aV\u5bb6\u7535\u884c\u4e1a
p7235
aV\u5bb6\u7535\u884c\u4e1a
p7236
aV\u5bb6\u7535\u884c\u4e1a
p7237
aV\u5bb6\u7535\u884c\u4e1a
p7238
aV\u5bb6\u7535\u884c\u4e1a
p7239
aV\u5bb6\u7535\u884c\u4e1a
p7240
aV\u5bb6\u7535\u884c\u4e1a
p7241
aV\u5bb6\u7535\u884c\u4e1a
p7242
aV\u5bb6\u7535\u884c\u4e1a
p7243
aV\u5bb6\u7535\u884c\u4e1a
p7244
aV\u5bb6\u7535\u884c\u4e1a
p7245
atba(lp7246
g14
(g15
(dp7247
g17
g18
(g19
(I0
tS'b'
tRp7248
(I1
(L3L
tg22
I00
(lp7249
g24
ag25
ag26
atbsg25
NstRp7250
a(dp7251
S'0.14.1'
p7252
(dp7253
S'axes'
p7254
g13
sS'blocks'
p7255
(lp7256
(dp7257
S'mgr_locs'
p7258
c__builtin__
slice
p7259
(I0
I3
L1L
tRp7260
sS'values'
p7261
g35
sasstbsb.